TN:
SF:/home/msaied/Documents/TPI-morfologia-matematica/ejercicios.cpp
FN:7,_Z14esImagenValidaRKSt6vectorIS_IiSaIiEESaIS1_EE
FN:17,_Z20sonPixelesConectadosRKSt6vectorIS_IiSaIiEESaIS1_EERKS1_S7_i
FN:35,_Z21devolverPromedioAreasRKSt6vectorIS_IiSaIiEESaIS1_EEi
FN:52,_Z16calcularContornoRKSt6vectorIS_IiSaIiEESaIS1_EEi
FN:67,_Z11cerrarFormaRSt6vectorIS_IiSaIiEESaIS1_EERKS3_
FN:76,_Z22obtenerRegionConectadaRSt6vectorIS_IiSaIiEESaIS1_EERKS1_
FN:91,_GLOBAL__sub_I__Z14esImagenValidaRKSt6vectorIS_IiSaIiEESaIS1_EE
FN:91,_Z41__static_initialization_and_destruction_0ii
FNDA:5,_Z14esImagenValidaRKSt6vectorIS_IiSaIiEESaIS1_EE
FNDA:18,_Z20sonPixelesConectadosRKSt6vectorIS_IiSaIiEESaIS1_EERKS1_S7_i
FNDA:18,_Z21devolverPromedioAreasRKSt6vectorIS_IiSaIiEESaIS1_EEi
FNDA:4,_Z16calcularContornoRKSt6vectorIS_IiSaIiEESaIS1_EEi
FNDA:2,_Z11cerrarFormaRSt6vectorIS_IiSaIiEESaIS1_EERKS3_
FNDA:4,_Z22obtenerRegionConectadaRSt6vectorIS_IiSaIiEESaIS1_EERKS1_
FNDA:1,_GLOBAL__sub_I__Z14esImagenValidaRKSt6vectorIS_IiSaIiEESaIS1_EE
FNDA:1,_Z41__static_initialization_and_destruction_0ii
FNF:8
FNH:8
DA:7,5
DA:8,5
DA:9,5
DA:10,2
DA:12,5
DA:17,18
DA:18,18
DA:19,1
DA:22,17
DA:23,34
DA:24,85
DA:25,68
DA:26,10
DA:30,17
DA:35,18
DA:36,36
DA:37,69
DA:38,194
DA:39,143
DA:40,122
DA:41,61
DA:45,18
DA:46,18
DA:48,36
DA:52,4
DA:53,4
DA:54,24
DA:55,124
DA:56,208
DA:57,208
DA:58,104
DA:59,44
DA:63,4
DA:67,2
DA:68,4
DA:69,4
DA:70,2
DA:71,4
DA:76,4
DA:77,8
DA:78,8
DA:79,4
DA:80,4
DA:81,24
DA:82,20
DA:83,20
DA:84,10
DA:85,10
DA:88,4
DA:89,4
DA:90,8
DA:91,3
LF:52
LH:52
end_of_record
SF:/usr/include/c++/7/bits/alloc_traits.h
FN:435,_ZNSt16allocator_traitsISaIiEE8allocateERS0_m
FN:435,_ZNSt16allocator_traitsISaISt6vectorIS0_IiSaIiEESaIS2_EEEE8allocateERS5_m
FN:435,_ZNSt16allocator_traitsISaISt6vectorIiSaIiEEEE8allocateERS3_m
FN:461,_ZNSt16allocator_traitsISaIiEE10deallocateERS0_Pim
FN:461,_ZNSt16allocator_traitsISaISt6vectorIiSaIiEEEE10deallocateERS3_PS2_m
FN:461,_ZNSt16allocator_traitsISaISt6vectorIS0_IiSaIiEESaIS2_EEEE10deallocateERS5_PS4_m
FN:474,_ZNSt16allocator_traitsISaISt6vectorIS0_IiSaIiEESaIS2_EEEE9constructIS4_JRKS4_EEEvRS5_PT_DpOT0_
FN:474,_ZNSt16allocator_traitsISaISt6vectorIiSaIiEEEE9constructIS2_JRKS2_EEEvRS3_PT_DpOT0_
FN:486,_ZNSt16allocator_traitsISaISt6vectorIS0_IiSaIiEESaIS2_EEEE7destroyIS4_EEvRS5_PT_
FN:486,_ZNSt16allocator_traitsISaISt6vectorIiSaIiEEEE7destroyIS2_EEvRS3_PT_
FN:495,_ZNSt16allocator_traitsISaISt6vectorIiSaIiEEEE8max_sizeERKS3_
FN:495,_ZNSt16allocator_traitsISaISt6vectorIS0_IiSaIiEESaIS2_EEEE8max_sizeERKS5_
FN:504,_ZNSt16allocator_traitsISaISt6vectorIiSaIiEEEE37select_on_container_copy_constructionERKS3_
FN:504,_ZNSt16allocator_traitsISaIiEE37select_on_container_copy_constructionERKS0_
FN:516,_ZSt18__do_alloc_on_copyISaISt6vectorIiSaIiEEEEvRT_RKS4_St17integral_constantIbLb0EE
FN:516,_ZSt18__do_alloc_on_copyISaIiEEvRT_RKS1_St17integral_constantIbLb0EE
FN:520,_ZSt15__alloc_on_copyISaISt6vectorIiSaIiEEEEvRT_RKS4_
FN:520,_ZSt15__alloc_on_copyISaIiEEvRT_RKS1_
FN:535,_ZSt18__do_alloc_on_moveISaISt6vectorIS0_IiSaIiEESaIS2_EEEEvRT_S7_St17integral_constantIbLb1EE
FN:543,_ZSt15__alloc_on_moveISaISt6vectorIS0_IiSaIiEESaIS2_EEEEvRT_S7_
FNDA:8080,_ZNSt16allocator_traitsISaISt6vectorIiSaIiEEEE8allocateERS3_m
FNDA:89,_ZNSt16allocator_traitsISaISt6vectorIS0_IiSaIiEESaIS2_EEEE8allocateERS5_m
FNDA:63115,_ZNSt16allocator_traitsISaIiEE8allocateERS0_m
FNDA:63115,_ZNSt16allocator_traitsISaIiEE10deallocateERS0_Pim
FNDA:89,_ZNSt16allocator_traitsISaISt6vectorIS0_IiSaIiEESaIS2_EEEE10deallocateERS5_PS4_m
FNDA:8080,_ZNSt16allocator_traitsISaISt6vectorIiSaIiEEEE10deallocateERS3_PS2_m
FNDA:948,_ZNSt16allocator_traitsISaISt6vectorIiSaIiEEEE9constructIS2_JRKS2_EEEvRS3_PT_DpOT0_
FNDA:110,_ZNSt16allocator_traitsISaISt6vectorIS0_IiSaIiEESaIS2_EEEE9constructIS4_JRKS4_EEEvRS5_PT_DpOT0_
FNDA:0,_ZNSt16allocator_traitsISaISt6vectorIiSaIiEEEE7destroyIS2_EEvRS3_PT_
FNDA:0,_ZNSt16allocator_traitsISaISt6vectorIS0_IiSaIiEESaIS2_EEEE7destroyIS4_EEvRS5_PT_
FNDA:5528,_ZNSt16allocator_traitsISaISt6vectorIiSaIiEEEE8max_sizeERKS3_
FNDA:178,_ZNSt16allocator_traitsISaISt6vectorIS0_IiSaIiEESaIS2_EEEE8max_sizeERKS5_
FNDA:5154,_ZNSt16allocator_traitsISaISt6vectorIiSaIiEEEE37select_on_container_copy_constructionERKS3_
FNDA:39392,_ZNSt16allocator_traitsISaIiEE37select_on_container_copy_constructionERKS0_
FNDA:0,_ZSt18__do_alloc_on_copyISaIiEEvRT_RKS1_St17integral_constantIbLb0EE
FNDA:0,_ZSt18__do_alloc_on_copyISaISt6vectorIiSaIiEEEEvRT_RKS4_St17integral_constantIbLb0EE
FNDA:0,_ZSt15__alloc_on_copyISaIiEEvRT_RKS1_
FNDA:0,_ZSt15__alloc_on_copyISaISt6vectorIiSaIiEEEEvRT_RKS4_
FNDA:18,_ZSt18__do_alloc_on_moveISaISt6vectorIS0_IiSaIiEESaIS2_EEEEvRT_S7_St17integral_constantIbLb1EE
FNDA:18,_ZSt15__alloc_on_moveISaISt6vectorIS0_IiSaIiEESaIS2_EEEEvRT_S7_
FNF:20
FNH:14
DA:435,71284
DA:436,71284
DA:461,71284
DA:462,71284
DA:474,1058
DA:475,1058
DA:486,0
DA:487,0
DA:495,5706
DA:496,5706
DA:504,44546
DA:505,44546
DA:516,0
DA:517,0
DA:520,0
DA:524,0
DA:525,0
DA:535,18
DA:536,18
DA:543,18
DA:547,18
DA:548,18
LF:22
LH:15
end_of_record
SF:/usr/include/c++/7/bits/allocator.h
FN:131,_ZNSaISt6vectorIS_IiSaIiEESaIS1_EEEC2Ev
FN:131,_ZNSaIiEC2Ev
FN:131,_ZNSaISt6vectorIiSaIiEEEC2Ev
FN:133,_ZNSaISt6vectorIS_IiSaIiEESaIS1_EEEC2ERKS4_
FN:133,_ZNSaISt6vectorIiSaIiEEEC2ERKS2_
FN:133,_ZNSaIiEC2ERKS_
FN:139,_ZNSaISt6vectorIS_IiSaIiEESaIS1_EEED2Ev
FN:139,_ZNSaIiED2Ev
FN:139,_ZNSaISt6vectorIiSaIiEEED2Ev
FN:164,_ZStneIiEbRKSaIT_ES3_
FN:164,_ZStneISt6vectorIiSaIiEEEbRKSaIT_ES6_
FNDA:40,_ZNSaISt6vectorIS_IiSaIiEESaIS1_EEEC2Ev
FNDA:2136,_ZNSaISt6vectorIiSaIiEEEC2Ev
FNDA:23704,_ZNSaIiEC2Ev
FNDA:36,_ZNSaISt6vectorIS_IiSaIiEESaIS1_EEEC2ERKS4_
FNDA:12549,_ZNSaISt6vectorIiSaIiEEEC2ERKS2_
FNDA:108653,_ZNSaIiEC2ERKS_
FNDA:76,_ZNSaISt6vectorIS_IiSaIiEESaIS1_EEED2Ev
FNDA:14685,_ZNSaISt6vectorIiSaIiEEED2Ev
FNDA:132357,_ZNSaIiED2Ev
FNDA:0,_ZStneIiEbRKSaIT_ES3_
FNDA:0,_ZStneISt6vectorIiSaIiEEEbRKSaIT_ES6_
FNF:11
FNH:9
DA:131,25880
DA:133,121238
DA:134,121238
DA:139,147118
DA:164,0
DA:166,0
LF:6
LH:4
end_of_record
SF:/usr/include/c++/7/bits/cpp_type_traits.h
FN:408,_ZSt12__miter_baseIN9__gnu_cxx17__normal_iteratorIPKSt6vectorIiSaIiEES2_IS4_SaIS4_EEEEET_SA_
FN:408,_ZSt12__miter_baseIPiET_S1_
FN:408,_ZSt12__miter_baseIN9__gnu_cxx17__normal_iteratorIPKiSt6vectorIiSaIiEEEEET_S8_
FN:408,_ZSt12__miter_baseIPKiET_S2_
FN:408,_ZSt12__miter_baseIPSt6vectorIiSaIiEEET_S4_
FNDA:112,_ZSt12__miter_baseIPiET_S1_
FNDA:47392,_ZSt12__miter_baseIPKiET_S2_
FNDA:78880,_ZSt12__miter_baseIN9__gnu_cxx17__normal_iteratorIPKiSt6vectorIiSaIiEEEEET_S8_
FNDA:0,_ZSt12__miter_baseIPSt6vectorIiSaIiEEET_S4_
FNDA:12,_ZSt12__miter_baseIN9__gnu_cxx17__normal_iteratorIPKSt6vectorIiSaIiEES2_IS4_SaIS4_EEEEET_SA_
FNF:5
FNH:4
DA:408,126396
DA:409,126396
LF:2
LH:2
end_of_record
SF:/usr/include/c++/7/bits/move.h
FN:47,_ZSt11__addressofISt6vectorIS0_IiSaIiEESaIS2_EEEPT_RS5_
FN:47,_ZSt11__addressofISt6vectorIiSaIiEEEPT_RS3_
FN:73,_ZSt7forwardIRKSt6vectorIS0_IiSaIiEESaIS2_EEEOT_RNSt16remove_referenceIS7_E4typeE
FN:73,_ZSt7forwardIRSt6vectorIiSaIiEEEOT_RNSt16remove_referenceIS4_E4typeE
FN:73,_ZSt7forwardIRKSt6vectorIiSaIiEEEOT_RNSt16remove_referenceIS5_E4typeE
FN:73,_ZSt7forwardISt6vectorIS0_IiSaIiEESaIS2_EEEOT_RNSt16remove_referenceIS5_E4typeE
FN:73,_ZSt7forwardISt6vectorIiSaIiEEEOT_RNSt16remove_referenceIS3_E4typeE
FN:98,_ZSt4moveIRPSt6vectorIS0_IiSaIiEESaIS2_EEEONSt16remove_referenceIT_E4typeEOS8_
FN:98,_ZSt4moveIRSt6vectorIS0_IiSaIiEESaIS2_EEEONSt16remove_referenceIT_E4typeEOS7_
FN:98,_ZSt4moveIRSaISt6vectorIS0_IiSaIiEESaIS2_EEEEONSt16remove_referenceIT_E4typeEOS8_
FN:98,_ZSt4moveIRSaISt6vectorIiSaIiEEEEONSt16remove_referenceIT_E4typeEOS6_
FN:98,_ZSt4moveIRSt6vectorIiSaIiEEEONSt16remove_referenceIT_E4typeEOS5_
FN:98,_ZSt4moveIRSaIiEEONSt16remove_referenceIT_E4typeEOS3_
FN:98,_ZSt4moveIRPSt6vectorIiSaIiEEEONSt16remove_referenceIT_E4typeEOS6_
FN:98,_ZSt4moveIRSt6vectorIS0_IS0_IiSaIiEESaIS2_EESaIS4_EEEONSt16remove_referenceIT_E4typeEOS9_
FN:98,_ZSt4moveIRPiEONSt16remove_referenceIT_E4typeEOS3_
FN:187,_ZSt4swapIPiENSt9enable_ifIXsrSt6__and_IJSt6__not_ISt15__is_tuple_likeIT_EESt21is_move_constructibleIS5_ESt18is_move_assignableIS5_EEE5valueEvE4typeERS5_SF_
FN:187,_ZSt4swapIPSt6vectorIiSaIiEEENSt9enable_ifIXsrSt6__and_IJSt6__not_ISt15__is_tuple_likeIT_EESt21is_move_constructibleIS8_ESt18is_move_assignableIS8_EEE5valueEvE4typeERS8_SI_
FN:187,_ZSt4swapIPSt6vectorIS0_IiSaIiEESaIS2_EEENSt9enable_ifIXsrSt6__and_IJSt6__not_ISt15__is_tuple_likeIT_EESt21is_move_constructibleISA_ESt18is_move_assignableISA_EEE5valueEvE4typeERSA_SK_
FNDA:336,_ZSt11__addressofISt6vectorIS0_IiSaIiEESaIS2_EEEPT_RS5_
FNDA:83020,_ZSt11__addressofISt6vectorIiSaIiEEEPT_RS3_
FNDA:10690,_ZSt7forwardISt6vectorIiSaIiEEEOT_RNSt16remove_referenceIS3_E4typeE
FNDA:113,_ZSt7forwardISt6vectorIS0_IiSaIiEESaIS2_EEEOT_RNSt16remove_referenceIS5_E4typeE
FNDA:2676,_ZSt7forwardIRSt6vectorIiSaIiEEEOT_RNSt16remove_referenceIS4_E4typeE
FNDA:35749,_ZSt7forwardIRKSt6vectorIiSaIiEEEOT_RNSt16remove_referenceIS5_E4typeE
FNDA:309,_ZSt7forwardIRKSt6vectorIS0_IiSaIiEESaIS2_EEEOT_RNSt16remove_referenceIS7_E4typeE
FNDA:55557,_ZSt4moveIRPiEONSt16remove_referenceIT_E4typeEOS3_
FNDA:12106,_ZSt4moveIRSaIiEEONSt16remove_referenceIT_E4typeEOS3_
FNDA:7867,_ZSt4moveIRSt6vectorIiSaIiEEEONSt16remove_referenceIT_E4typeEOS5_
FNDA:18,_ZSt4moveIRSaISt6vectorIS0_IiSaIiEESaIS2_EEEEONSt16remove_referenceIT_E4typeEOS8_
FNDA:324,_ZSt4moveIRPSt6vectorIS0_IiSaIiEESaIS2_EEEONSt16remove_referenceIT_E4typeEOS8_
FNDA:18711,_ZSt4moveIRPSt6vectorIiSaIiEEEONSt16remove_referenceIT_E4typeEOS6_
FNDA:1209,_ZSt4moveIRSaISt6vectorIiSaIiEEEEONSt16remove_referenceIT_E4typeEOS6_
FNDA:18,_ZSt4moveIRSt6vectorIS0_IS0_IiSaIiEESaIS2_EESaIS4_EEEONSt16remove_referenceIT_E4typeEOS9_
FNDA:1096,_ZSt4moveIRSt6vectorIS0_IiSaIiEESaIS2_EEEONSt16remove_referenceIT_E4typeEOS7_
FNDA:18519,_ZSt4swapIPiENSt9enable_ifIXsrSt6__and_IJSt6__not_ISt15__is_tuple_likeIT_EESt21is_move_constructibleIS5_ESt18is_move_assignableIS5_EEE5valueEvE4typeERS5_SF_
FNDA:108,_ZSt4swapIPSt6vectorIS0_IiSaIiEESaIS2_EEENSt9enable_ifIXsrSt6__and_IJSt6__not_ISt15__is_tuple_likeIT_EESt21is_move_constructibleISA_ESt18is_move_assignableISA_EEE5valueEvE4typeERSA_SK_
FNDA:6237,_ZSt4swapIPSt6vectorIiSaIiEEENSt9enable_ifIXsrSt6__and_IJSt6__not_ISt15__is_tuple_likeIT_EESt21is_move_constructibleIS8_ESt18is_move_assignableIS8_EEE5valueEvE4typeERS8_SI_
FNF:19
FNH:19
DA:47,83356
DA:48,83356
DA:73,49537
DA:74,49537
DA:98,96906
DA:99,96906
DA:187,24864
DA:198,24864
DA:199,24864
DA:200,24864
DA:201,24864
LF:11
LH:11
end_of_record
SF:/usr/include/c++/7/bits/stl_algobase.h
FN:219,_ZSt3maxImERKT_S2_S2_
FN:277,_ZSt12__niter_baseIPSt6vectorIiSaIiEEET_S4_
FN:277,_ZSt12__niter_baseIPKiET_S2_
FN:277,_ZSt12__niter_baseIPiET_S1_
FN:319,_ZNSt11__copy_moveILb0ELb0ESt26random_access_iterator_tagE8__copy_mIPKSt6vectorIiSaIiEEPS5_EET0_T_SA_S9_
FN:319,_ZNSt11__copy_moveILb0ELb0ESt26random_access_iterator_tagE8__copy_mIPSt6vectorIiSaIiEES6_EET0_T_S8_S7_
FN:357,_ZNSt11__copy_moveILb0ELb1ESt26random_access_iterator_tagE8__copy_mIiEEPT_PKS3_S6_S4_
FN:375,_ZSt13__copy_move_aILb0EPiS0_ET1_T0_S2_S1_
FN:375,_ZSt13__copy_move_aILb0EPKiPiET1_T0_S4_S3_
FN:375,_ZSt13__copy_move_aILb0EPKSt6vectorIiSaIiEEPS2_ET1_T0_S7_S6_
FN:375,_ZSt13__copy_move_aILb0EPSt6vectorIiSaIiEES3_ET1_T0_S5_S4_
FN:420,_ZSt14__copy_move_a2ILb0EPKiPiET1_T0_S4_S3_
FN:420,_ZSt14__copy_move_a2ILb0EN9__gnu_cxx17__normal_iteratorIPKiSt6vectorIiSaIiEEEENS1_IPiS6_EEET1_T0_SB_SA_
FN:420,_ZSt14__copy_move_a2ILb0EN9__gnu_cxx17__normal_iteratorIPKSt6vectorIiSaIiEES2_IS4_SaIS4_EEEENS1_IPS4_S8_EEET1_T0_SD_SC_
FN:420,_ZSt14__copy_move_a2ILb0EPSt6vectorIiSaIiEES3_ET1_T0_S5_S4_
FN:420,_ZSt14__copy_move_a2ILb0EN9__gnu_cxx17__normal_iteratorIPKiSt6vectorIiSaIiEEEEPiET1_T0_SA_S9_
FN:420,_ZSt14__copy_move_a2ILb0EPiS0_ET1_T0_S2_S1_
FN:446,_ZSt4copyIN9__gnu_cxx17__normal_iteratorIPKiSt6vectorIiSaIiEEEENS1_IPiS6_EEET0_T_SB_SA_
FN:446,_ZSt4copyIPiS0_ET0_T_S2_S1_
FN:446,_ZSt4copyIN9__gnu_cxx17__normal_iteratorIPKiSt6vectorIiSaIiEEEEPiET0_T_SA_S9_
FN:446,_ZSt4copyIPSt6vectorIiSaIiEES3_ET0_T_S5_S4_
FN:446,_ZSt4copyIPKiPiET0_T_S4_S3_
FN:446,_ZSt4copyIN9__gnu_cxx17__normal_iteratorIPKSt6vectorIiSaIiEES2_IS4_SaIS4_EEEENS1_IPS4_S8_EEET0_T_SD_SC_
FN:811,_ZNSt7__equalILb1EE5equalIiEEbPKT_S4_S4_
FN:821,_ZSt11__equal_auxIPKiS1_EbT_S2_T0_
FN:1041,_ZSt5equalIN9__gnu_cxx17__normal_iteratorIPKiSt6vectorIiSaIiEEEES7_EbT_S8_T0_
FNDA:2911,_ZSt3maxImERKT_S2_S2_
FNDA:47392,_ZSt12__niter_baseIPKiET_S2_
FNDA:63256,_ZSt12__niter_baseIPiET_S1_
FNDA:0,_ZSt12__niter_baseIPSt6vectorIiSaIiEEET_S4_
FNDA:204,_ZNSt11__copy_moveILb0ELb0ESt26random_access_iterator_tagE8__copy_mIPSt6vectorIiSaIiEES6_EET0_T_S8_S7_
FNDA:6,_ZNSt11__copy_moveILb0ELb0ESt26random_access_iterator_tagE8__copy_mIPKSt6vectorIiSaIiEEPS5_EET0_T_SA_S9_
FNDA:63136,_ZNSt11__copy_moveILb0ELb1ESt26random_access_iterator_tagE8__copy_mIiEEPT_PKS3_S6_S4_
FNDA:0,_ZSt13__copy_move_aILb0EPiS0_ET1_T0_S2_S1_
FNDA:63136,_ZSt13__copy_move_aILb0EPKiPiET1_T0_S4_S3_
FNDA:204,_ZSt13__copy_move_aILb0EPSt6vectorIiSaIiEES3_ET1_T0_S5_S4_
FNDA:6,_ZSt13__copy_move_aILb0EPKSt6vectorIiSaIiEEPS2_ET1_T0_S7_S6_
FNDA:0,_ZSt14__copy_move_a2ILb0EPiS0_ET1_T0_S2_S1_
FNDA:48,_ZSt14__copy_move_a2ILb0EN9__gnu_cxx17__normal_iteratorIPKiSt6vectorIiSaIiEEEENS1_IPiS6_EEET1_T0_SB_SA_
FNDA:23696,_ZSt14__copy_move_a2ILb0EPKiPiET1_T0_S4_S3_
FNDA:39392,_ZSt14__copy_move_a2ILb0EN9__gnu_cxx17__normal_iteratorIPKiSt6vectorIiSaIiEEEEPiET1_T0_SA_S9_
FNDA:0,_ZSt14__copy_move_a2ILb0EPSt6vectorIiSaIiEES3_ET1_T0_S5_S4_
FNDA:6,_ZSt14__copy_move_a2ILb0EN9__gnu_cxx17__normal_iteratorIPKSt6vectorIiSaIiEES2_IS4_SaIS4_EEEENS1_IPS4_S8_EEET1_T0_SD_SC_
FNDA:0,_ZSt4copyIPiS0_ET0_T_S2_S1_
FNDA:48,_ZSt4copyIN9__gnu_cxx17__normal_iteratorIPKiSt6vectorIiSaIiEEEENS1_IPiS6_EEET0_T_SB_SA_
FNDA:23696,_ZSt4copyIPKiPiET0_T_S4_S3_
FNDA:39392,_ZSt4copyIN9__gnu_cxx17__normal_iteratorIPKiSt6vectorIiSaIiEEEEPiET0_T_SA_S9_
FNDA:0,_ZSt4copyIPSt6vectorIiSaIiEES3_ET0_T_S5_S4_
FNDA:6,_ZSt4copyIN9__gnu_cxx17__normal_iteratorIPKSt6vectorIiSaIiEES2_IS4_SaIS4_EEEENS1_IPS4_S8_EEET0_T_SD_SC_
FNDA:14685,_ZNSt7__equalILb1EE5equalIiEEbPKT_S4_S4_
FNDA:14685,_ZSt11__equal_auxIPKiS1_EbT_S2_T0_
FNDA:14685,_ZSt5equalIN9__gnu_cxx17__normal_iteratorIPKiSt6vectorIiSaIiEEEES7_EbT_S8_T0_
FNF:26
FNH:20
DA:219,2911
DA:224,2911
DA:225,1372
DA:226,1539
DA:277,110648
DA:278,110648
DA:319,210
DA:322,258
DA:324,48
DA:325,48
DA:326,48
DA:328,210
DA:357,63136
DA:366,63136
DA:367,63136
DA:368,63135
DA:369,63136
DA:375,63346
DA:380,63346
DA:386,63346
DA:420,63142
DA:422,63196
DA:424,63196
DA:446,63142
DA:455,63142
DA:456,63142
DA:811,14685
DA:813,14685
DA:814,14685
DA:815,0
DA:821,14685
DA:825,14685
DA:831,14685
DA:1041,14685
DA:1051,14685
DA:1053,14685
LF:36
LH:35
end_of_record
SF:/usr/include/c++/7/bits/stl_construct.h
FN:74,_ZSt10_ConstructISt6vectorIiSaIiEEJRKS2_EEvPT_DpOT0_
FN:74,_ZSt10_ConstructISt6vectorIiSaIiEEJS2_EEvPT_DpOT0_
FN:74,_ZSt10_ConstructISt6vectorIiSaIiEEJRS2_EEvPT_DpOT0_
FN:74,_ZSt10_ConstructISt6vectorIS0_IiSaIiEESaIS2_EEJS4_EEvPT_DpOT0_
FN:97,_ZSt8_DestroyISt6vectorIS0_IiSaIiEESaIS2_EEEvPT_
FN:97,_ZSt8_DestroyISt6vectorIiSaIiEEEvPT_
FN:105,_ZNSt12_Destroy_auxILb0EE9__destroyIPSt6vectorIiSaIiEEEEvT_S6_
FN:105,_ZNSt12_Destroy_auxILb0EE9__destroyIPSt6vectorIS2_IiSaIiEESaIS4_EEEEvT_S8_
FN:105,_ZNSt12_Destroy_auxILb0EE9__destroyIN9__gnu_cxx17__normal_iteratorIPSt6vectorIiSaIiEES4_IS6_SaIS6_EEEEEEvT_SB_
FN:117,_ZNSt12_Destroy_auxILb1EE9__destroyIPiEEvT_S3_
FN:117,_ZNSt12_Destroy_auxILb1EE9__destroyIN9__gnu_cxx17__normal_iteratorIPiSt6vectorIiSaIiEEEEEEvT_S9_
FN:127,_ZSt8_DestroyIN9__gnu_cxx17__normal_iteratorIPiSt6vectorIiSaIiEEEEEvT_S7_
FN:127,_ZSt8_DestroyIN9__gnu_cxx17__normal_iteratorIPSt6vectorIiSaIiEES2_IS4_SaIS4_EEEEEvT_S9_
FN:127,_ZSt8_DestroyIPSt6vectorIS0_IiSaIiEESaIS2_EEEvT_S6_
FN:127,_ZSt8_DestroyIPiEvT_S1_
FN:127,_ZSt8_DestroyIPSt6vectorIiSaIiEEEvT_S4_
FN:203,_ZSt8_DestroyIPiiEvT_S1_RSaIT0_E
FN:203,_ZSt8_DestroyIPSt6vectorIiSaIiEES2_EvT_S4_RSaIT0_E
FN:203,_ZSt8_DestroyIN9__gnu_cxx17__normal_iteratorIPSt6vectorIiSaIiEES2_IS4_SaIS4_EEEES4_EvT_S9_RSaIT0_E
FN:203,_ZSt8_DestroyIN9__gnu_cxx17__normal_iteratorIPiSt6vectorIiSaIiEEEEiEvT_S7_RSaIT0_E
FN:203,_ZSt8_DestroyIPSt6vectorIS0_IiSaIiEESaIS2_EES4_EvT_S6_RSaIT0_E
FNDA:4319,_ZSt10_ConstructISt6vectorIiSaIiEEJS2_EEvPT_DpOT0_
FNDA:113,_ZSt10_ConstructISt6vectorIS0_IiSaIiEESaIS2_EEJS4_EEvPT_DpOT0_
FNDA:33234,_ZSt10_ConstructISt6vectorIiSaIiEEJRKS2_EEvPT_DpOT0_
FNDA:2676,_ZSt10_ConstructISt6vectorIiSaIiEEJRS2_EEvPT_DpOT0_
FNDA:223,_ZSt8_DestroyISt6vectorIS0_IiSaIiEESaIS2_EEEvPT_
FNDA:42791,_ZSt8_DestroyISt6vectorIiSaIiEEEvPT_
FNDA:6,_ZNSt12_Destroy_auxILb0EE9__destroyIN9__gnu_cxx17__normal_iteratorIPSt6vectorIiSaIiEES4_IS6_SaIS6_EEEEEEvT_SB_
FNDA:147,_ZNSt12_Destroy_auxILb0EE9__destroyIPSt6vectorIS2_IiSaIiEESaIS4_EEEEvT_S8_
FNDA:11150,_ZNSt12_Destroy_auxILb0EE9__destroyIPSt6vectorIiSaIiEEEEvT_S6_
FNDA:48,_ZNSt12_Destroy_auxILb1EE9__destroyIN9__gnu_cxx17__normal_iteratorIPiSt6vectorIiSaIiEEEEEEvT_S9_
FNDA:69217,_ZNSt12_Destroy_auxILb1EE9__destroyIPiEEvT_S3_
FNDA:48,_ZSt8_DestroyIN9__gnu_cxx17__normal_iteratorIPiSt6vectorIiSaIiEEEEEvT_S7_
FNDA:6,_ZSt8_DestroyIN9__gnu_cxx17__normal_iteratorIPSt6vectorIiSaIiEES2_IS4_SaIS4_EEEEEvT_S9_
FNDA:69217,_ZSt8_DestroyIPiEvT_S1_
FNDA:147,_ZSt8_DestroyIPSt6vectorIS0_IiSaIiEESaIS2_EEEvT_S6_
FNDA:11150,_ZSt8_DestroyIPSt6vectorIiSaIiEEEvT_S4_
FNDA:48,_ZSt8_DestroyIN9__gnu_cxx17__normal_iteratorIPiSt6vectorIiSaIiEEEEiEvT_S7_RSaIT0_E
FNDA:6,_ZSt8_DestroyIN9__gnu_cxx17__normal_iteratorIPSt6vectorIiSaIiEES2_IS4_SaIS4_EEEES4_EvT_S9_RSaIT0_E
FNDA:69217,_ZSt8_DestroyIPiiEvT_S1_RSaIT0_E
FNDA:147,_ZSt8_DestroyIPSt6vectorIS0_IiSaIiEESaIS2_EES4_EvT_S6_RSaIT0_E
FNDA:11150,_ZSt8_DestroyIPSt6vectorIiSaIiEES2_EvT_S4_RSaIT0_E
FNF:21
FNH:21
DA:74,40342
DA:75,40342
DA:97,43014
DA:98,43014
DA:105,54317
DA:107,97331
DA:108,43014
DA:109,11303
DA:117,69265
DA:127,80568
DA:137,80568
DA:138,80568
DA:203,80568
DA:206,80568
DA:207,80568
LF:15
LH:15
end_of_record
SF:/usr/include/c++/7/bits/stl_iterator.h
FN:782,_ZN9__gnu_cxx17__normal_iteratorIPSt6vectorIiSaIiEES1_IS3_SaIS3_EEEC2ERKS4_
FN:782,_ZN9__gnu_cxx17__normal_iteratorIPiSt6vectorIiSaIiEEEC2ERKS1_
FN:782,_ZN9__gnu_cxx17__normal_iteratorIPKiSt6vectorIiSaIiEEEC2ERKS2_
FN:782,_ZN9__gnu_cxx17__normal_iteratorIPKSt6vectorIiSaIiEES1_IS3_SaIS3_EEEC2ERKS5_
FN:782,_ZN9__gnu_cxx17__normal_iteratorIPSt6vectorIS1_IiSaIiEESaIS3_EES1_IS5_SaIS5_EEEC2ERKS6_
FN:795,_ZNK9__gnu_cxx17__normal_iteratorIPSt6vectorIiSaIiEES1_IS3_SaIS3_EEEdeEv
FN:795,_ZNK9__gnu_cxx17__normal_iteratorIPKSt6vectorIiSaIiEES1_IS3_SaIS3_EEEdeEv
FN:803,_ZN9__gnu_cxx17__normal_iteratorIPKSt6vectorIiSaIiEES1_IS3_SaIS3_EEEppEv
FN:803,_ZN9__gnu_cxx17__normal_iteratorIPSt6vectorIiSaIiEES1_IS3_SaIS3_EEEppEv
FN:847,_ZNK9__gnu_cxx17__normal_iteratorIPiSt6vectorIiSaIiEEE4baseEv
FN:847,_ZNK9__gnu_cxx17__normal_iteratorIPSt6vectorIiSaIiEES1_IS3_SaIS3_EEE4baseEv
FN:847,_ZNK9__gnu_cxx17__normal_iteratorIPKiSt6vectorIiSaIiEEE4baseEv
FN:847,_ZNK9__gnu_cxx17__normal_iteratorIPSt6vectorIS1_IiSaIiEESaIS3_EES1_IS5_SaIS5_EEE4baseEv
FN:847,_ZNK9__gnu_cxx17__normal_iteratorIPKSt6vectorIiSaIiEES1_IS3_SaIS3_EEE4baseEv
FN:869,_ZN9__gnu_cxxeqIPKiSt6vectorIiSaIiEEEEbRKNS_17__normal_iteratorIT_T0_EESB_
FN:869,_ZN9__gnu_cxxeqIPKSt6vectorIiSaIiEES1_IS3_SaIS3_EEEEbRKNS_17__normal_iteratorIT_T0_EESD_
FN:883,_ZN9__gnu_cxxneIPSt6vectorIiSaIiEES1_IS3_SaIS3_EEEEbRKNS_17__normal_iteratorIT_T0_EESC_
FN:883,_ZN9__gnu_cxxneIPKSt6vectorIiSaIiEES1_IS3_SaIS3_EEEEbRKNS_17__normal_iteratorIT_T0_EESD_
FN:965,_ZN9__gnu_cxxmiIPSt6vectorIS1_IiSaIiEESaIS3_EES1_IS5_SaIS5_EEEENS_17__normal_iteratorIT_T0_E15difference_typeERKSC_SF_
FN:965,_ZN9__gnu_cxxmiIPSt6vectorIiSaIiEES1_IS3_SaIS3_EEEENS_17__normal_iteratorIT_T0_E15difference_typeERKSA_SD_
FN:986,_ZSt12__niter_baseIPKSt6vectorIiSaIiEES0_IS2_SaIS2_EEET_N9__gnu_cxx17__normal_iteratorIS7_T0_EE
FN:986,_ZSt12__niter_baseIPiSt6vectorIiSaIiEEET_N9__gnu_cxx17__normal_iteratorIS4_T0_EE
FN:986,_ZSt12__niter_baseIPKiSt6vectorIiSaIiEEET_N9__gnu_cxx17__normal_iteratorIS5_T0_EE
FN:986,_ZSt12__niter_baseIPSt6vectorIiSaIiEES0_IS2_SaIS2_EEET_N9__gnu_cxx17__normal_iteratorIS6_T0_EE
FN:1039,_ZNSt13move_iteratorIPSt6vectorIiSaIiEEEC2ES3_
FN:1039,_ZNSt13move_iteratorIPSt6vectorIS0_IiSaIiEESaIS2_EEEC2ES5_
FN:1048,_ZNKSt13move_iteratorIPSt6vectorIS0_IiSaIiEESaIS2_EEE4baseEv
FN:1048,_ZNKSt13move_iteratorIPSt6vectorIiSaIiEEE4baseEv
FN:1052,_ZNKSt13move_iteratorIPSt6vectorIS0_IiSaIiEESaIS2_EEEdeEv
FN:1052,_ZNKSt13move_iteratorIPSt6vectorIiSaIiEEEdeEv
FN:1060,_ZNSt13move_iteratorIPSt6vectorIiSaIiEEEppEv
FN:1060,_ZNSt13move_iteratorIPSt6vectorIS0_IiSaIiEESaIS2_EEEppEv
FN:1127,_ZSteqIPSt6vectorIS0_IiSaIiEESaIS2_EEEbRKSt13move_iteratorIT_ESA_
FN:1127,_ZSteqIPSt6vectorIiSaIiEEEbRKSt13move_iteratorIT_ES8_
FN:1139,_ZStneIPSt6vectorIS0_IiSaIiEESaIS2_EEEbRKSt13move_iteratorIT_ESA_
FN:1139,_ZStneIPSt6vectorIiSaIiEEEbRKSt13move_iteratorIT_ES8_
FN:1224,_ZSt32__make_move_if_noexcept_iteratorISt6vectorIiSaIiEESt13move_iteratorIPS2_EET0_PT_
FN:1224,_ZSt32__make_move_if_noexcept_iteratorISt6vectorIS0_IiSaIiEESaIS2_EESt13move_iteratorIPS4_EET0_PT_
FNDA:200,_ZN9__gnu_cxx17__normal_iteratorIPiSt6vectorIiSaIiEEEC2ERKS1_
FNDA:300,_ZN9__gnu_cxx17__normal_iteratorIPSt6vectorIS1_IiSaIiEESaIS3_EES1_IS5_SaIS5_EEEC2ERKS6_
FNDA:123585,_ZN9__gnu_cxx17__normal_iteratorIPKiSt6vectorIiSaIiEEEC2ERKS2_
FNDA:12339,_ZN9__gnu_cxx17__normal_iteratorIPKSt6vectorIiSaIiEES1_IS3_SaIS3_EEEC2ERKS5_
FNDA:15367,_ZN9__gnu_cxx17__normal_iteratorIPSt6vectorIiSaIiEES1_IS3_SaIS3_EEEC2ERKS4_
FNDA:35961,_ZNK9__gnu_cxx17__normal_iteratorIPKSt6vectorIiSaIiEES1_IS3_SaIS3_EEEdeEv
FNDA:17439,_ZNK9__gnu_cxx17__normal_iteratorIPSt6vectorIiSaIiEES1_IS3_SaIS3_EEEdeEv
FNDA:35961,_ZN9__gnu_cxx17__normal_iteratorIPKSt6vectorIiSaIiEES1_IS3_SaIS3_EEEppEv
FNDA:17119,_ZN9__gnu_cxx17__normal_iteratorIPSt6vectorIiSaIiEES1_IS3_SaIS3_EEEppEv
FNDA:160,_ZNK9__gnu_cxx17__normal_iteratorIPiSt6vectorIiSaIiEEE4baseEv
FNDA:620,_ZNK9__gnu_cxx17__normal_iteratorIPSt6vectorIS1_IiSaIiEESaIS3_EES1_IS5_SaIS5_EEE4baseEv
FNDA:123585,_ZNK9__gnu_cxx17__normal_iteratorIPKiSt6vectorIiSaIiEEE4baseEv
FNDA:85140,_ZNK9__gnu_cxx17__normal_iteratorIPKSt6vectorIiSaIiEES1_IS3_SaIS3_EEE4baseEv
FNDA:55785,_ZNK9__gnu_cxx17__normal_iteratorIPSt6vectorIiSaIiEES1_IS3_SaIS3_EEE4baseEv
FNDA:5,_ZN9__gnu_cxxeqIPKiSt6vectorIiSaIiEEEEbRKNS_17__normal_iteratorIT_T0_EESB_
FNDA:109,_ZN9__gnu_cxxeqIPKSt6vectorIiSaIiEES1_IS3_SaIS3_EEEEbRKNS_17__normal_iteratorIT_T0_EESD_
FNDA:41564,_ZN9__gnu_cxxneIPKSt6vectorIiSaIiEES1_IS3_SaIS3_EEEEbRKNS_17__normal_iteratorIT_T0_EESD_
FNDA:21074,_ZN9__gnu_cxxneIPSt6vectorIiSaIiEES1_IS3_SaIS3_EEEEbRKNS_17__normal_iteratorIT_T0_EESC_
FNDA:3196,_ZN9__gnu_cxxmiIPSt6vectorIiSaIiEES1_IS3_SaIS3_EEEENS_17__normal_iteratorIT_T0_E15difference_typeERKSA_SD_
FNDA:89,_ZN9__gnu_cxxmiIPSt6vectorIS1_IiSaIiEESaIS3_EES1_IS5_SaIS5_EEEENS_17__normal_iteratorIT_T0_E15difference_typeERKSC_SF_
FNDA:48,_ZSt12__niter_baseIPiSt6vectorIiSaIiEEET_N9__gnu_cxx17__normal_iteratorIS4_T0_EE
FNDA:618,_ZSt12__niter_baseIPSt6vectorIiSaIiEES0_IS2_SaIS2_EEET_N9__gnu_cxx17__normal_iteratorIS6_T0_EE
FNDA:36,_ZSt12__niter_baseIPKSt6vectorIiSaIiEES0_IS2_SaIS2_EEET_N9__gnu_cxx17__normal_iteratorIS7_T0_EE
FNDA:123575,_ZSt12__niter_baseIPKiSt6vectorIiSaIiEEET_N9__gnu_cxx17__normal_iteratorIS5_T0_EE
FNDA:11464,_ZNSt13move_iteratorIPSt6vectorIiSaIiEEEC2ES3_
FNDA:356,_ZNSt13move_iteratorIPSt6vectorIS0_IiSaIiEESaIS2_EEEC2ES5_
FNDA:20102,_ZNKSt13move_iteratorIPSt6vectorIiSaIiEEE4baseEv
FNDA:582,_ZNKSt13move_iteratorIPSt6vectorIS0_IiSaIiEESaIS2_EEE4baseEv
FNDA:4319,_ZNKSt13move_iteratorIPSt6vectorIiSaIiEEEdeEv
FNDA:113,_ZNKSt13move_iteratorIPSt6vectorIS0_IiSaIiEESaIS2_EEEdeEv
FNDA:4319,_ZNSt13move_iteratorIPSt6vectorIiSaIiEEEppEv
FNDA:113,_ZNSt13move_iteratorIPSt6vectorIS0_IiSaIiEESaIS2_EEEppEv
FNDA:10051,_ZSteqIPSt6vectorIiSaIiEEEbRKSt13move_iteratorIT_ES8_
FNDA:291,_ZSteqIPSt6vectorIS0_IiSaIiEESaIS2_EEEbRKSt13move_iteratorIT_ESA_
FNDA:10051,_ZStneIPSt6vectorIiSaIiEEEbRKSt13move_iteratorIT_ES8_
FNDA:291,_ZStneIPSt6vectorIS0_IiSaIiEESaIS2_EEEbRKSt13move_iteratorIT_ESA_
FNDA:11056,_ZSt32__make_move_if_noexcept_iteratorISt6vectorIiSaIiEESt13move_iteratorIPS2_EET0_PT_
FNDA:356,_ZSt32__make_move_if_noexcept_iteratorISt6vectorIS0_IiSaIiEESaIS2_EESt13move_iteratorIPS4_EET0_PT_
FNF:38
FNH:38
DA:782,151791
DA:783,151791
DA:795,53400
DA:796,53400
DA:803,53080
DA:805,53080
DA:806,53080
DA:847,265290
DA:848,265290
DA:869,114
DA:872,114
DA:883,62638
DA:886,62638
DA:965,3285
DA:968,3285
DA:986,124277
DA:987,124277
DA:1039,11820
DA:1040,11820
DA:1048,20684
DA:1049,20684
DA:1052,4432
DA:1053,4432
DA:1060,4432
DA:1062,4432
DA:1063,4432
DA:1127,10342
DA:1129,10342
DA:1139,10342
DA:1141,10342
DA:1224,11412
DA:1225,11412
LF:32
LH:32
end_of_record
SF:/usr/include/c++/7/bits/stl_iterator_base_funcs.h
FN:98,_ZSt10__distanceIPKSt6vectorIiSaIiEEENSt15iterator_traitsIT_E15difference_typeES6_S6_St26random_access_iterator_tag
FN:98,_ZSt10__distanceIPKiENSt15iterator_traitsIT_E15difference_typeES3_S3_St26random_access_iterator_tag
FN:138,_ZSt8distanceIPKSt6vectorIiSaIiEEENSt15iterator_traitsIT_E15difference_typeES6_S6_
FN:138,_ZSt8distanceIPKiENSt15iterator_traitsIT_E15difference_typeES3_S3_
FNDA:162,_ZSt10__distanceIPKSt6vectorIiSaIiEEENSt15iterator_traitsIT_E15difference_typeES6_S6_St26random_access_iterator_tag
FNDA:23696,_ZSt10__distanceIPKiENSt15iterator_traitsIT_E15difference_typeES3_S3_St26random_access_iterator_tag
FNDA:162,_ZSt8distanceIPKSt6vectorIiSaIiEEENSt15iterator_traitsIT_E15difference_typeES6_S6_
FNDA:23696,_ZSt8distanceIPKiENSt15iterator_traitsIT_E15difference_typeES3_S3_
FNF:4
FNH:4
DA:98,23858
DA:104,23858
DA:138,23858
DA:141,23858
DA:142,47716
LF:5
LH:5
end_of_record
SF:/usr/include/c++/7/bits/stl_iterator_base_types.h
FN:205,_ZSt19__iterator_categoryIPKiENSt15iterator_traitsIT_E17iterator_categoryERKS3_
FN:205,_ZSt19__iterator_categoryIPKSt6vectorIiSaIiEEENSt15iterator_traitsIT_E17iterator_categoryERKS6_
FNDA:162,_ZSt19__iterator_categoryIPKSt6vectorIiSaIiEEENSt15iterator_traitsIT_E17iterator_categoryERKS6_
FNDA:23696,_ZSt19__iterator_categoryIPKiENSt15iterator_traitsIT_E17iterator_categoryERKS3_
FNF:2
FNH:2
DA:205,23858
DA:206,23858
LF:2
LH:2
end_of_record
SF:/usr/include/c++/7/bits/stl_uninitialized.h
FN:76,_ZNSt20__uninitialized_copyILb0EE13__uninit_copyISt13move_iteratorIPSt6vectorIS3_IiSaIiEESaIS5_EEES8_EET0_T_SB_SA_
FN:76,_ZNSt20__uninitialized_copyILb0EE13__uninit_copyIN9__gnu_cxx17__normal_iteratorIPKSt6vectorIiSaIiEES4_IS6_SaIS6_EEEEPS6_EET0_T_SE_SD_
FN:76,_ZNSt20__uninitialized_copyILb0EE13__uninit_copyIPKSt6vectorIiSaIiEEPS4_EET0_T_S9_S8_
FN:76,_ZNSt20__uninitialized_copyILb0EE13__uninit_copyIPSt6vectorIiSaIiEES5_EET0_T_S7_S6_
FN:76,_ZNSt20__uninitialized_copyILb0EE13__uninit_copyISt13move_iteratorIPSt6vectorIiSaIiEEES6_EET0_T_S9_S8_
FN:99,_ZNSt20__uninitialized_copyILb1EE13__uninit_copyIN9__gnu_cxx17__normal_iteratorIPKiSt6vectorIiSaIiEEEEPiEET0_T_SC_SB_
FN:99,_ZNSt20__uninitialized_copyILb1EE13__uninit_copyIPiS2_EET0_T_S4_S3_
FN:99,_ZNSt20__uninitialized_copyILb1EE13__uninit_copyIPKiPiEET0_T_S6_S5_
FN:115,_ZSt18uninitialized_copyIPKSt6vectorIiSaIiEEPS2_ET0_T_S7_S6_
FN:115,_ZSt18uninitialized_copyIPSt6vectorIiSaIiEES3_ET0_T_S5_S4_
FN:115,_ZSt18uninitialized_copyISt13move_iteratorIPSt6vectorIS1_IiSaIiEESaIS3_EEES6_ET0_T_S9_S8_
FN:115,_ZSt18uninitialized_copyISt13move_iteratorIPSt6vectorIiSaIiEEES4_ET0_T_S7_S6_
FN:115,_ZSt18uninitialized_copyIN9__gnu_cxx17__normal_iteratorIPKSt6vectorIiSaIiEES2_IS4_SaIS4_EEEEPS4_ET0_T_SC_SB_
FN:115,_ZSt18uninitialized_copyIPKiPiET0_T_S4_S3_
FN:115,_ZSt18uninitialized_copyIN9__gnu_cxx17__normal_iteratorIPKiSt6vectorIiSaIiEEEEPiET0_T_SA_S9_
FN:115,_ZSt18uninitialized_copyIPiS0_ET0_T_S2_S1_
FN:287,_ZSt22__uninitialized_copy_aISt13move_iteratorIPSt6vectorIS1_IiSaIiEESaIS3_EEES6_S5_ET0_T_S9_S8_RSaIT1_E
FN:287,_ZSt22__uninitialized_copy_aIPKSt6vectorIiSaIiEEPS2_S2_ET0_T_S7_S6_RSaIT1_E
FN:287,_ZSt22__uninitialized_copy_aIPiS0_iET0_T_S2_S1_RSaIT1_E
FN:287,_ZSt22__uninitialized_copy_aISt13move_iteratorIPSt6vectorIiSaIiEEES4_S3_ET0_T_S7_S6_RSaIT1_E
FN:287,_ZSt22__uninitialized_copy_aIPSt6vectorIiSaIiEES3_S2_ET0_T_S5_S4_RSaIT1_E
FN:287,_ZSt22__uninitialized_copy_aIN9__gnu_cxx17__normal_iteratorIPKiSt6vectorIiSaIiEEEEPiiET0_T_SA_S9_RSaIT1_E
FN:287,_ZSt22__uninitialized_copy_aIN9__gnu_cxx17__normal_iteratorIPKSt6vectorIiSaIiEES2_IS4_SaIS4_EEEEPS4_S4_ET0_T_SC_SB_RSaIT1_E
FN:287,_ZSt22__uninitialized_copy_aIPKiPiiET0_T_S4_S3_RSaIT1_E
FN:305,_ZSt34__uninitialized_move_if_noexcept_aIPSt6vectorIS0_IiSaIiEESaIS2_EES5_SaIS4_EET0_T_S8_S7_RT1_
FN:305,_ZSt34__uninitialized_move_if_noexcept_aIPSt6vectorIiSaIiEES3_SaIS2_EET0_T_S6_S5_RT1_
FNDA:5732,_ZNSt20__uninitialized_copyILb0EE13__uninit_copyISt13move_iteratorIPSt6vectorIiSaIiEEES6_EET0_T_S9_S8_
FNDA:178,_ZNSt20__uninitialized_copyILb0EE13__uninit_copyISt13move_iteratorIPSt6vectorIS3_IiSaIiEESaIS5_EEES8_EET0_T_SB_SA_
FNDA:162,_ZNSt20__uninitialized_copyILb0EE13__uninit_copyIPKSt6vectorIiSaIiEEPS4_EET0_T_S9_S8_
FNDA:5154,_ZNSt20__uninitialized_copyILb0EE13__uninit_copyIN9__gnu_cxx17__normal_iteratorIPKSt6vectorIiSaIiEES4_IS6_SaIS6_EEEEPS6_EET0_T_SE_SD_
FNDA:0,_ZNSt20__uninitialized_copyILb0EE13__uninit_copyIPSt6vectorIiSaIiEES5_EET0_T_S7_S6_
FNDA:0,_ZNSt20__uninitialized_copyILb1EE13__uninit_copyIPiS2_EET0_T_S4_S3_
FNDA:23696,_ZNSt20__uninitialized_copyILb1EE13__uninit_copyIPKiPiEET0_T_S6_S5_
FNDA:39392,_ZNSt20__uninitialized_copyILb1EE13__uninit_copyIN9__gnu_cxx17__normal_iteratorIPKiSt6vectorIiSaIiEEEEPiEET0_T_SC_SB_
FNDA:0,_ZSt18uninitialized_copyIPiS0_ET0_T_S2_S1_
FNDA:5732,_ZSt18uninitialized_copyISt13move_iteratorIPSt6vectorIiSaIiEEES4_ET0_T_S7_S6_
FNDA:178,_ZSt18uninitialized_copyISt13move_iteratorIPSt6vectorIS1_IiSaIiEESaIS3_EEES6_ET0_T_S9_S8_
FNDA:162,_ZSt18uninitialized_copyIPKSt6vectorIiSaIiEEPS2_ET0_T_S7_S6_
FNDA:23696,_ZSt18uninitialized_copyIPKiPiET0_T_S4_S3_
FNDA:5154,_ZSt18uninitialized_copyIN9__gnu_cxx17__normal_iteratorIPKSt6vectorIiSaIiEES2_IS4_SaIS4_EEEEPS4_ET0_T_SC_SB_
FNDA:39392,_ZSt18uninitialized_copyIN9__gnu_cxx17__normal_iteratorIPKiSt6vectorIiSaIiEEEEPiET0_T_SA_S9_
FNDA:0,_ZSt18uninitialized_copyIPSt6vectorIiSaIiEES3_ET0_T_S5_S4_
FNDA:0,_ZSt22__uninitialized_copy_aIPiS0_iET0_T_S2_S1_RSaIT1_E
FNDA:5732,_ZSt22__uninitialized_copy_aISt13move_iteratorIPSt6vectorIiSaIiEEES4_S3_ET0_T_S7_S6_RSaIT1_E
FNDA:178,_ZSt22__uninitialized_copy_aISt13move_iteratorIPSt6vectorIS1_IiSaIiEESaIS3_EEES6_S5_ET0_T_S9_S8_RSaIT1_E
FNDA:162,_ZSt22__uninitialized_copy_aIPKSt6vectorIiSaIiEEPS2_S2_ET0_T_S7_S6_RSaIT1_E
FNDA:23696,_ZSt22__uninitialized_copy_aIPKiPiiET0_T_S4_S3_RSaIT1_E
FNDA:5154,_ZSt22__uninitialized_copy_aIN9__gnu_cxx17__normal_iteratorIPKSt6vectorIiSaIiEES2_IS4_SaIS4_EEEEPS4_S4_ET0_T_SC_SB_RSaIT1_E
FNDA:39392,_ZSt22__uninitialized_copy_aIN9__gnu_cxx17__normal_iteratorIPKiSt6vectorIiSaIiEEEEPiiET0_T_SA_S9_RSaIT1_E
FNDA:0,_ZSt22__uninitialized_copy_aIPSt6vectorIiSaIiEES3_S2_ET0_T_S5_S4_RSaIT1_E
FNDA:5528,_ZSt34__uninitialized_move_if_noexcept_aIPSt6vectorIiSaIiEES3_SaIS2_EET0_T_S6_S5_RT1_
FNDA:178,_ZSt34__uninitialized_move_if_noexcept_aIPSt6vectorIS0_IiSaIiEESaIS2_EES5_SaIS4_EET0_T_S8_S7_RT1_
FNF:26
FNH:20
DA:76,11226
DA:79,11226
DA:82,86558
DA:83,37666
DA:84,11226
DA:86,0
DA:88,0
DA:89,0
DA:99,63088
DA:101,63088
DA:115,74314
DA:128,74314
DA:134,74314
DA:287,74314
DA:289,74314
DA:305,5706
DA:311,5706
DA:312,5706
LF:18
LH:15
end_of_record
SF:/usr/include/c++/7/bits/stl_vector.h
FN:81,_ZNSt12_Vector_baseISt6vectorIiSaIiEESaIS2_EE12_Vector_implD2Ev
FN:81,_ZNSt12_Vector_baseISt6vectorIS0_IiSaIiEESaIS2_EESaIS4_EE12_Vector_implD2Ev
FN:81,_ZNSt12_Vector_baseIiSaIiEE12_Vector_implD2Ev
FN:88,_ZNSt12_Vector_baseISt6vectorIS0_IiSaIiEESaIS2_EESaIS4_EE12_Vector_implC2Ev
FN:88,_ZNSt12_Vector_baseISt6vectorIiSaIiEESaIS2_EE12_Vector_implC2Ev
FN:92,_ZNSt12_Vector_baseISt6vectorIS0_IiSaIiEESaIS2_EESaIS4_EE12_Vector_implC2ERKS5_
FN:92,_ZNSt12_Vector_baseIiSaIiEE12_Vector_implC2ERKS0_
FN:92,_ZNSt12_Vector_baseISt6vectorIiSaIiEESaIS2_EE12_Vector_implC2ERKS3_
FN:97,_ZNSt12_Vector_baseISt6vectorIiSaIiEESaIS2_EE12_Vector_implC2EOS3_
FN:97,_ZNSt12_Vector_baseIiSaIiEE12_Vector_implC2EOS0_
FN:103,_ZNSt12_Vector_baseISt6vectorIS0_IiSaIiEESaIS2_EESaIS4_EE12_Vector_impl12_M_swap_dataERS7_
FN:103,_ZNSt12_Vector_baseIiSaIiEE12_Vector_impl12_M_swap_dataERS2_
FN:103,_ZNSt12_Vector_baseISt6vectorIiSaIiEESaIS2_EE12_Vector_impl12_M_swap_dataERS5_
FN:115,_ZNSt12_Vector_baseISt6vectorIiSaIiEESaIS2_EE19_M_get_Tp_allocatorEv
FN:115,_ZNSt12_Vector_baseISt6vectorIS0_IiSaIiEESaIS2_EESaIS4_EE19_M_get_Tp_allocatorEv
FN:115,_ZNSt12_Vector_baseIiSaIiEE19_M_get_Tp_allocatorEv
FN:119,_ZNKSt12_Vector_baseIiSaIiEE19_M_get_Tp_allocatorEv
FN:119,_ZNKSt12_Vector_baseISt6vectorIiSaIiEESaIS2_EE19_M_get_Tp_allocatorEv
FN:119,_ZNKSt12_Vector_baseISt6vectorIS0_IiSaIiEESaIS2_EESaIS4_EE19_M_get_Tp_allocatorEv
FN:123,_ZNKSt12_Vector_baseISt6vectorIS0_IiSaIiEESaIS2_EESaIS4_EE13get_allocatorEv
FN:126,_ZNSt12_Vector_baseISt6vectorIS0_IiSaIiEESaIS2_EESaIS4_EEC2Ev
FN:126,_ZNSt12_Vector_baseISt6vectorIiSaIiEESaIS2_EEC2Ev
FN:129,_ZNSt12_Vector_baseISt6vectorIiSaIiEESaIS2_EEC2ERKS3_
FN:129,_ZNSt12_Vector_baseIiSaIiEEC2ERKS0_
FN:129,_ZNSt12_Vector_baseISt6vectorIS0_IiSaIiEESaIS2_EESaIS4_EEC2ERKS5_
FN:136,_ZNSt12_Vector_baseISt6vectorIiSaIiEESaIS2_EEC2EmRKS3_
FN:136,_ZNSt12_Vector_baseIiSaIiEEC2EmRKS0_
FN:144,_ZNSt12_Vector_baseISt6vectorIiSaIiEESaIS2_EEC2EOS4_
FN:144,_ZNSt12_Vector_baseIiSaIiEEC2EOS1_
FN:161,_ZNSt12_Vector_baseISt6vectorIS0_IiSaIiEESaIS2_EESaIS4_EED2Ev
FN:161,_ZNSt12_Vector_baseISt6vectorIiSaIiEESaIS2_EED2Ev
FN:161,_ZNSt12_Vector_baseIiSaIiEED2Ev
FN:169,_ZNSt12_Vector_baseISt6vectorIiSaIiEESaIS2_EE11_M_allocateEm
FN:169,_ZNSt12_Vector_baseISt6vectorIS0_IiSaIiEESaIS2_EESaIS4_EE11_M_allocateEm
FN:169,_ZNSt12_Vector_baseIiSaIiEE11_M_allocateEm
FN:176,_ZNSt12_Vector_baseISt6vectorIiSaIiEESaIS2_EE13_M_deallocateEPS2_m
FN:176,_ZNSt12_Vector_baseIiSaIiEE13_M_deallocateEPim
FN:176,_ZNSt12_Vector_baseISt6vectorIS0_IiSaIiEESaIS2_EESaIS4_EE13_M_deallocateEPS4_m
FN:185,_ZNSt12_Vector_baseIiSaIiEE17_M_create_storageEm
FN:185,_ZNSt12_Vector_baseISt6vectorIiSaIiEESaIS2_EE17_M_create_storageEm
FN:259,_ZNSt6vectorIS_IS_IiSaIiEESaIS1_EESaIS3_EEC2Ev
FN:259,_ZNSt6vectorIS_IiSaIiEESaIS1_EEC2Ev
FN:270,_ZNSt6vectorIS_IS_IiSaIiEESaIS1_EESaIS3_EEC2ERKS4_
FN:326,_ZNSt6vectorIiSaIiEEC2ERKS1_
FN:326,_ZNSt6vectorIS_IiSaIiEESaIS1_EEC2ERKS3_
FN:344,_ZNSt6vectorIiSaIiEEC2EOS1_
FN:344,_ZNSt6vectorIS_IiSaIiEESaIS1_EEC2EOS3_
FN:383,_ZNSt6vectorIS_IiSaIiEESaIS1_EEC2ESt16initializer_listIS1_ERKS2_
FN:383,_ZNSt6vectorIiSaIiEEC2ESt16initializer_listIiERKS0_
FN:433,_ZNSt6vectorIS_IS_IiSaIiEESaIS1_EESaIS3_EED2Ev
FN:433,_ZNSt6vectorIiSaIiEED2Ev
FN:433,_ZNSt6vectorIS_IiSaIiEESaIS1_EED2Ev
FN:461,_ZNSt6vectorIS_IS_IiSaIiEESaIS1_EESaIS3_EEaSEOS5_
FN:563,_ZNSt6vectorIiSaIiEE5beginEv
FN:563,_ZNSt6vectorIS_IS_IiSaIiEESaIS1_EESaIS3_EE5beginEv
FN:563,_ZNSt6vectorIS_IiSaIiEESaIS1_EE5beginEv
FN:572,_ZNKSt6vectorIiSaIiEE5beginEv
FN:572,_ZNKSt6vectorIS_IiSaIiEESaIS1_EE5beginEv
FN:581,_ZNSt6vectorIS_IS_IiSaIiEESaIS1_EESaIS3_EE3endEv
FN:581,_ZNSt6vectorIiSaIiEE3endEv
FN:581,_ZNSt6vectorIS_IiSaIiEESaIS1_EE3endEv
FN:590,_ZNKSt6vectorIiSaIiEE3endEv
FN:590,_ZNKSt6vectorIS_IiSaIiEESaIS1_EE3endEv
FN:670,_ZNKSt6vectorIS_IiSaIiEESaIS1_EE4sizeEv
FN:670,_ZNKSt6vectorIiSaIiEE4sizeEv
FN:670,_ZNKSt6vectorIS_IS_IiSaIiEESaIS1_EESaIS3_EE4sizeEv
FN:675,_ZNKSt6vectorIS_IiSaIiEESaIS1_EE8max_sizeEv
FN:675,_ZNKSt6vectorIS_IS_IiSaIiEESaIS1_EESaIS3_EE8max_sizeEv
FN:750,_ZNKSt6vectorIS_IiSaIiEESaIS1_EE8capacityEv
FN:750,_ZNKSt6vectorIiSaIiEE8capacityEv
FN:759,_ZNKSt6vectorIiSaIiEE5emptyEv
FN:759,_ZNKSt6vectorIS_IiSaIiEESaIS1_EE5emptyEv
FN:795,_ZNSt6vectorIS_IS_IiSaIiEESaIS1_EESaIS3_EEixEm
FN:813,_ZNKSt6vectorIiSaIiEEixEm
FN:813,_ZNKSt6vectorIS_IiSaIiEESaIS1_EEixEm
FN:939,_ZNSt6vectorIS_IS_IiSaIiEESaIS1_EESaIS3_EE9push_backERKS3_
FN:939,_ZNSt6vectorIS_IiSaIiEESaIS1_EE9push_backERKS1_
FN:1247,_ZNSt6vectorIS_IiSaIiEESaIS1_EE5clearEv
FN:1247,_ZNSt6vectorIiSaIiEE5clearEv
FN:1257,_ZNSt6vectorIiSaIiEE20_M_allocate_and_copyIN9__gnu_cxx17__normal_iteratorIPKiS1_EEEEPimT_S9_
FN:1257,_ZNSt6vectorIS_IiSaIiEESaIS1_EE20_M_allocate_and_copyIN9__gnu_cxx17__normal_iteratorIPKS1_S3_EEEEPS1_mT_SB_
FN:1324,_ZNSt6vectorIS_IiSaIiEESaIS1_EE19_M_range_initializeIPKS1_EEvT_S7_St20forward_iterator_tag
FN:1324,_ZNSt6vectorIiSaIiEE19_M_range_initializeIPKiEEvT_S5_St20forward_iterator_tag
FN:1502,_ZNKSt6vectorIS_IiSaIiEESaIS1_EE12_M_check_lenEmPKc
FN:1502,_ZNKSt6vectorIS_IS_IiSaIiEESaIS1_EESaIS3_EE12_M_check_lenEmPKc
FN:1516,_ZNSt6vectorIS_IiSaIiEESaIS1_EE15_M_erase_at_endEPS1_
FN:1516,_ZNSt6vectorIiSaIiEE15_M_erase_at_endEPi
FN:1534,_ZNSt6vectorIS_IS_IiSaIiEESaIS1_EESaIS3_EE14_M_move_assignEOS5_St17integral_constantIbLb1EE
FN:1601,_ZSteqIiSaIiEEbRKSt6vectorIT_T0_ES6_
FNDA:69189,_ZNSt12_Vector_baseIiSaIiEE12_Vector_implD2Ev
FNDA:58,_ZNSt12_Vector_baseISt6vectorIS0_IiSaIiEESaIS2_EESaIS4_EE12_Vector_implD2Ev
FNDA:8386,_ZNSt12_Vector_baseISt6vectorIiSaIiEESaIS2_EE12_Vector_implD2Ev
FNDA:1974,_ZNSt12_Vector_baseISt6vectorIiSaIiEESaIS2_EE12_Vector_implC2Ev
FNDA:40,_ZNSt12_Vector_baseISt6vectorIS0_IiSaIiEESaIS2_EESaIS4_EE12_Vector_implC2Ev
FNDA:18,_ZNSt12_Vector_baseISt6vectorIS0_IiSaIiEESaIS2_EESaIS4_EE12_Vector_implC2ERKS5_
FNDA:6299,_ZNSt12_Vector_baseISt6vectorIiSaIiEESaIS2_EE12_Vector_implC2ERKS3_
FNDA:63168,_ZNSt12_Vector_baseIiSaIiEE12_Vector_implC2ERKS0_
FNDA:6013,_ZNSt12_Vector_baseIiSaIiEE12_Vector_implC2EOS0_
FNDA:113,_ZNSt12_Vector_baseISt6vectorIiSaIiEESaIS2_EE12_Vector_implC2EOS3_
FNDA:6173,_ZNSt12_Vector_baseIiSaIiEE12_Vector_impl12_M_swap_dataERS2_
FNDA:36,_ZNSt12_Vector_baseISt6vectorIS0_IiSaIiEESaIS2_EESaIS4_EE12_Vector_impl12_M_swap_dataERS7_
FNDA:2079,_ZNSt12_Vector_baseISt6vectorIiSaIiEESaIS2_EE12_Vector_impl12_M_swap_dataERS5_
FNDA:138582,_ZNSt12_Vector_baseIiSaIiEE19_M_get_Tp_allocatorEv
FNDA:361,_ZNSt12_Vector_baseISt6vectorIS0_IiSaIiEESaIS2_EESaIS4_EE19_M_get_Tp_allocatorEv
FNDA:25103,_ZNSt12_Vector_baseISt6vectorIiSaIiEESaIS2_EE19_M_get_Tp_allocatorEv
FNDA:196,_ZNKSt12_Vector_baseISt6vectorIS0_IiSaIiEESaIS2_EESaIS4_EE19_M_get_Tp_allocatorEv
FNDA:39528,_ZNKSt12_Vector_baseIiSaIiEE19_M_get_Tp_allocatorEv
FNDA:11665,_ZNKSt12_Vector_baseISt6vectorIiSaIiEESaIS2_EE19_M_get_Tp_allocatorEv
FNDA:18,_ZNKSt12_Vector_baseISt6vectorIS0_IiSaIiEESaIS2_EESaIS4_EE13get_allocatorEv
FNDA:1974,_ZNSt12_Vector_baseISt6vectorIiSaIiEESaIS2_EEC2Ev
FNDA:40,_ZNSt12_Vector_baseISt6vectorIS0_IiSaIiEESaIS2_EESaIS4_EEC2Ev
FNDA:18,_ZNSt12_Vector_baseISt6vectorIS0_IiSaIiEESaIS2_EESaIS4_EEC2ERKS5_
FNDA:1145,_ZNSt12_Vector_baseISt6vectorIiSaIiEESaIS2_EEC2ERKS3_
FNDA:23776,_ZNSt12_Vector_baseIiSaIiEEC2ERKS0_
FNDA:5154,_ZNSt12_Vector_baseISt6vectorIiSaIiEESaIS2_EEC2EmRKS3_
FNDA:39392,_ZNSt12_Vector_baseIiSaIiEEC2EmRKS0_
FNDA:6013,_ZNSt12_Vector_baseIiSaIiEEC2EOS1_
FNDA:113,_ZNSt12_Vector_baseISt6vectorIiSaIiEESaIS2_EEC2EOS4_
FNDA:69189,_ZNSt12_Vector_baseIiSaIiEED2Ev
FNDA:58,_ZNSt12_Vector_baseISt6vectorIS0_IiSaIiEESaIS2_EESaIS4_EED2Ev
FNDA:8386,_ZNSt12_Vector_baseISt6vectorIiSaIiEESaIS2_EED2Ev
FNDA:8080,_ZNSt12_Vector_baseISt6vectorIiSaIiEESaIS2_EE11_M_allocateEm
FNDA:89,_ZNSt12_Vector_baseISt6vectorIS0_IiSaIiEESaIS2_EESaIS4_EE11_M_allocateEm
FNDA:63116,_ZNSt12_Vector_baseIiSaIiEE11_M_allocateEm
FNDA:69217,_ZNSt12_Vector_baseIiSaIiEE13_M_deallocateEPim
FNDA:147,_ZNSt12_Vector_baseISt6vectorIS0_IiSaIiEESaIS2_EESaIS4_EE13_M_deallocateEPS4_m
FNDA:11150,_ZNSt12_Vector_baseISt6vectorIiSaIiEESaIS2_EE13_M_deallocateEPS2_m
FNDA:5154,_ZNSt12_Vector_baseISt6vectorIiSaIiEESaIS2_EE17_M_create_storageEm
FNDA:39392,_ZNSt12_Vector_baseIiSaIiEE17_M_create_storageEm
FNDA:1974,_ZNSt6vectorIS_IiSaIiEESaIS1_EEC2Ev
FNDA:40,_ZNSt6vectorIS_IS_IiSaIiEESaIS1_EESaIS3_EEC2Ev
FNDA:18,_ZNSt6vectorIS_IS_IiSaIiEESaIS1_EESaIS3_EEC2ERKS4_
FNDA:5154,_ZNSt6vectorIS_IiSaIiEESaIS1_EEC2ERKS3_
FNDA:39392,_ZNSt6vectorIiSaIiEEC2ERKS1_
FNDA:6013,_ZNSt6vectorIiSaIiEEC2EOS1_
FNDA:113,_ZNSt6vectorIS_IiSaIiEESaIS1_EEC2EOS3_
FNDA:162,_ZNSt6vectorIS_IiSaIiEESaIS1_EEC2ESt16initializer_listIS1_ERKS2_
FNDA:23696,_ZNSt6vectorIiSaIiEEC2ESt16initializer_listIiERKS0_
FNDA:69189,_ZNSt6vectorIiSaIiEED2Ev
FNDA:58,_ZNSt6vectorIS_IS_IiSaIiEESaIS1_EESaIS3_EED2Ev
FNDA:8386,_ZNSt6vectorIS_IiSaIiEESaIS1_EED2Ev
FNDA:18,_ZNSt6vectorIS_IS_IiSaIiEESaIS1_EESaIS3_EEaSEOS5_
FNDA:76,_ZNSt6vectorIiSaIiEE5beginEv
FNDA:150,_ZNSt6vectorIS_IS_IiSaIiEESaIS1_EESaIS3_EE5beginEv
FNDA:7033,_ZNSt6vectorIS_IiSaIiEESaIS1_EE5beginEv
FNDA:69135,_ZNKSt6vectorIiSaIiEE5beginEv
FNDA:5734,_ZNKSt6vectorIS_IiSaIiEESaIS1_EE5beginEv
FNDA:76,_ZNSt6vectorIiSaIiEE3endEv
FNDA:150,_ZNSt6vectorIS_IS_IiSaIiEESaIS1_EESaIS3_EE3endEv
FNDA:6358,_ZNSt6vectorIS_IiSaIiEESaIS1_EE3endEv
FNDA:54450,_ZNKSt6vectorIiSaIiEE3endEv
FNDA:5726,_ZNKSt6vectorIS_IiSaIiEESaIS1_EE3endEv
FNDA:378,_ZNKSt6vectorIS_IS_IiSaIiEESaIS1_EESaIS3_EE4sizeEv
FNDA:118689,_ZNKSt6vectorIiSaIiEE4sizeEv
FNDA:61796,_ZNKSt6vectorIS_IiSaIiEESaIS1_EE4sizeEv
FNDA:5528,_ZNKSt6vectorIS_IiSaIiEESaIS1_EE8max_sizeEv
FNDA:178,_ZNKSt6vectorIS_IS_IiSaIiEESaIS1_EESaIS3_EE8max_sizeEv
FNDA:48,_ZNKSt6vectorIiSaIiEE8capacityEv
FNDA:6,_ZNKSt6vectorIS_IiSaIiEESaIS1_EE8capacityEv
FNDA:5,_ZNKSt6vectorIiSaIiEE5emptyEv
FNDA:109,_ZNKSt6vectorIS_IiSaIiEESaIS1_EE5emptyEv
FNDA:28,_ZNSt6vectorIS_IS_IiSaIiEESaIS1_EESaIS3_EEixEm
FNDA:104848,_ZNKSt6vectorIiSaIiEEixEm
FNDA:52536,_ZNKSt6vectorIS_IiSaIiEESaIS1_EEixEm
FNDA:948,_ZNSt6vectorIS_IiSaIiEESaIS1_EE9push_backERKS1_
FNDA:110,_ZNSt6vectorIS_IS_IiSaIiEESaIS1_EESaIS3_EE9push_backERKS3_
FNDA:0,_ZNSt6vectorIiSaIiEE5clearEv
FNDA:0,_ZNSt6vectorIS_IiSaIiEESaIS1_EE5clearEv
FNDA:0,_ZNSt6vectorIiSaIiEE20_M_allocate_and_copyIN9__gnu_cxx17__normal_iteratorIPKiS1_EEEEPimT_S9_
FNDA:0,_ZNSt6vectorIS_IiSaIiEESaIS1_EE20_M_allocate_and_copyIN9__gnu_cxx17__normal_iteratorIPKS1_S3_EEEEPS1_mT_SB_
FNDA:162,_ZNSt6vectorIS_IiSaIiEESaIS1_EE19_M_range_initializeIPKS1_EEvT_S7_St20forward_iterator_tag
FNDA:23696,_ZNSt6vectorIiSaIiEE19_M_range_initializeIPKiEEvT_S5_St20forward_iterator_tag
FNDA:2764,_ZNKSt6vectorIS_IiSaIiEESaIS1_EE12_M_check_lenEmPKc
FNDA:89,_ZNKSt6vectorIS_IS_IiSaIiEESaIS1_EESaIS3_EE12_M_check_lenEmPKc
FNDA:0,_ZNSt6vectorIiSaIiEE15_M_erase_at_endEPi
FNDA:0,_ZNSt6vectorIS_IiSaIiEESaIS1_EE15_M_erase_at_endEPS1_
FNDA:18,_ZNSt6vectorIS_IS_IiSaIiEESaIS1_EESaIS3_EE14_M_move_assignEOS5_St17integral_constantIbLb1EE
FNDA:14685,_ZSteqIiSaIiEEbRKSt6vectorIT_T0_ES6_
FNF:89
FNH:83
DA:81,77633
DA:88,2014
DA:89,2014
DA:90,2014
DA:92,69485
DA:93,69485
DA:94,69485
DA:97,6126
DA:98,6126
DA:99,6126
DA:100,6126
DA:103,8288
DA:105,8288
DA:106,8288
DA:107,8288
DA:108,8288
DA:115,164046
DA:116,164046
DA:119,51389
DA:120,51389
DA:123,18
DA:124,18
DA:126,2014
DA:127,2014
DA:129,24939
DA:130,24939
DA:136,44546
DA:137,44546
DA:138,44546
DA:144,6126
DA:145,6126
DA:146,6126
DA:161,77633
DA:162,155266
DA:163,155266
DA:169,71285
DA:172,71285
DA:176,80514
DA:179,80514
DA:180,71284
DA:181,80514
DA:185,44546
DA:187,44546
DA:188,44546
DA:189,44546
DA:190,44546
DA:259,2014
DA:263,2014
DA:270,18
DA:271,18
DA:326,44546
DA:328,44546
DA:330,44546
DA:331,44546
DA:333,44546
DA:334,44546
DA:344,6126
DA:345,6126
DA:383,23858
DA:385,23858
DA:387,23858
DA:389,23858
DA:433,77633
DA:434,77633
DA:435,155266
DA:461,18
DA:463,18
DA:466,18
DA:467,18
DA:563,7259
DA:564,7259
DA:572,74869
DA:573,74869
DA:581,6584
DA:582,6584
DA:590,60176
DA:591,60176
DA:670,180863
DA:671,180863
DA:675,5706
DA:676,5706
DA:750,54
DA:751,54
DA:752,54
DA:759,114
DA:760,114
DA:795,28
DA:798,28
DA:813,157384
DA:816,157384
DA:939,1058
DA:941,1058
DA:943,350
DA:945,350
DA:948,708
DA:949,1058
DA:1247,0
DA:1248,0
DA:1257,0
DA:1260,0
DA:1263,0
DA:1264,0
DA:1265,0
DA:1267,0
DA:1269,0
DA:1270,0
DA:1324,23858
DA:1327,23858
DA:1328,23858
DA:1329,23858
DA:1330,23858
DA:1331,23858
DA:1333,23858
DA:1334,23858
DA:1502,2853
DA:1504,2853
DA:1505,0
DA:1507,2853
DA:1508,2853
DA:1516,0
DA:1518,0
DA:1519,0
DA:1520,0
DA:1534,18
DA:1536,36
DA:1537,18
DA:1538,18
DA:1539,18
DA:1540,18
DA:1601,14685
DA:1602,14685
DA:1603,14685
LF:132
LH:117
end_of_record
SF:/usr/include/c++/7/bits/vector.tcc
FN:179,_ZNSt6vectorIS_IiSaIiEESaIS1_EEaSERKS3_
FN:179,_ZNSt6vectorIiSaIiEEaSERKS1_
FN:394,_ZNSt6vectorIS_IS_IiSaIiEESaIS1_EESaIS3_EE17_M_realloc_insertIJRKS3_EEEvN9__gnu_cxx17__normal_iteratorIPS3_S5_EEDpOT_
FN:394,_ZNSt6vectorIS_IiSaIiEESaIS1_EE17_M_realloc_insertIJRKS1_EEEvN9__gnu_cxx17__normal_iteratorIPS1_S3_EEDpOT_
FNDA:48,_ZNSt6vectorIiSaIiEEaSERKS1_
FNDA:6,_ZNSt6vectorIS_IiSaIiEESaIS1_EEaSERKS3_
FNDA:619,_ZNSt6vectorIS_IiSaIiEESaIS1_EE17_M_realloc_insertIJRKS1_EEEvN9__gnu_cxx17__normal_iteratorIPS1_S3_EEDpOT_
FNDA:89,_ZNSt6vectorIS_IS_IiSaIiEESaIS1_EESaIS3_EE17_M_realloc_insertIJRKS3_EEEvN9__gnu_cxx17__normal_iteratorIPS3_S5_EEDpOT_
FNF:4
FNH:4
DA:179,54
DA:182,54
DA:185,54
DA:187,0
DA:188,0
DA:191,0
DA:192,0
DA:193,0
DA:194,0
DA:195,0
DA:196,0
DA:197,0
DA:199,0
DA:203,54
DA:204,54
DA:206,0
DA:208,0
DA:209,0
DA:210,0
DA:211,0
DA:212,0
DA:213,0
DA:214,0
DA:216,54
DA:218,54
DA:219,54
DA:223,0
DA:225,0
DA:226,0
DA:228,0
DA:230,54
DA:232,54
DA:394,708
DA:403,708
DA:405,708
DA:406,708
DA:407,708
DA:415,1416
DA:416,708
DA:422,708
DA:424,708
DA:426,708
DA:427,708
DA:429,708
DA:431,708
DA:433,708
DA:434,708
DA:436,0
DA:438,0
DA:439,0
DA:440,0
DA:442,0
DA:443,0
DA:444,0
DA:446,708
DA:447,708
DA:448,1416
DA:449,708
DA:450,708
DA:451,708
DA:452,708
DA:453,708
DA:454,708
LF:63
LH:34
end_of_record
SF:/usr/include/c++/7/ext/alloc_traits.h
FN:94,_ZN9__gnu_cxx14__alloc_traitsISaISt6vectorIiSaIiEEEE17_S_select_on_copyERKS4_
FN:94,_ZN9__gnu_cxx14__alloc_traitsISaIiEE17_S_select_on_copyERKS1_
FN:100,_ZN9__gnu_cxx14__alloc_traitsISaIiEE27_S_propagate_on_copy_assignEv
FN:100,_ZN9__gnu_cxx14__alloc_traitsISaISt6vectorIiSaIiEEEE27_S_propagate_on_copy_assignEv
FN:109,_ZN9__gnu_cxx14__alloc_traitsISaISt6vectorIiSaIiEEEE15_S_always_equalEv
FN:109,_ZN9__gnu_cxx14__alloc_traitsISaIiEE15_S_always_equalEv
FNDA:5154,_ZN9__gnu_cxx14__alloc_traitsISaISt6vectorIiSaIiEEEE17_S_select_on_copyERKS4_
FNDA:39392,_ZN9__gnu_cxx14__alloc_traitsISaIiEE17_S_select_on_copyERKS1_
FNDA:48,_ZN9__gnu_cxx14__alloc_traitsISaIiEE27_S_propagate_on_copy_assignEv
FNDA:6,_ZN9__gnu_cxx14__alloc_traitsISaISt6vectorIiSaIiEEEE27_S_propagate_on_copy_assignEv
FNDA:0,_ZN9__gnu_cxx14__alloc_traitsISaIiEE15_S_always_equalEv
FNDA:0,_ZN9__gnu_cxx14__alloc_traitsISaISt6vectorIiSaIiEEEE15_S_always_equalEv
FNF:6
FNH:4
DA:94,44546
DA:95,44546
DA:100,54
DA:101,54
DA:109,0
DA:110,0
LF:6
LH:4
end_of_record
SF:/usr/include/c++/7/ext/new_allocator.h
FN:79,_ZN9__gnu_cxx13new_allocatorISt6vectorIiSaIiEEEC2Ev
FN:79,_ZN9__gnu_cxx13new_allocatorIiEC2Ev
FN:79,_ZN9__gnu_cxx13new_allocatorISt6vectorIS1_IiSaIiEESaIS3_EEEC2Ev
FN:81,_ZN9__gnu_cxx13new_allocatorIiEC2ERKS1_
FN:81,_ZN9__gnu_cxx13new_allocatorISt6vectorIS1_IiSaIiEESaIS3_EEEC2ERKS6_
FN:81,_ZN9__gnu_cxx13new_allocatorISt6vectorIiSaIiEEEC2ERKS4_
FN:86,_ZN9__gnu_cxx13new_allocatorISt6vectorIiSaIiEEED2Ev
FN:86,_ZN9__gnu_cxx13new_allocatorIiED2Ev
FN:86,_ZN9__gnu_cxx13new_allocatorISt6vectorIS1_IiSaIiEESaIS3_EEED2Ev
FN:99,_ZN9__gnu_cxx13new_allocatorIiE8allocateEmPKv
FN:99,_ZN9__gnu_cxx13new_allocatorISt6vectorIiSaIiEEE8allocateEmPKv
FN:99,_ZN9__gnu_cxx13new_allocatorISt6vectorIS1_IiSaIiEESaIS3_EEE8allocateEmPKv
FN:116,_ZN9__gnu_cxx13new_allocatorISt6vectorIiSaIiEEE10deallocateEPS3_m
FN:116,_ZN9__gnu_cxx13new_allocatorISt6vectorIS1_IiSaIiEESaIS3_EEE10deallocateEPS5_m
FN:116,_ZN9__gnu_cxx13new_allocatorIiE10deallocateEPim
FN:129,_ZNK9__gnu_cxx13new_allocatorIiE8max_sizeEv
FN:129,_ZNK9__gnu_cxx13new_allocatorISt6vectorIS1_IiSaIiEESaIS3_EEE8max_sizeEv
FN:129,_ZNK9__gnu_cxx13new_allocatorISt6vectorIiSaIiEEE8max_sizeEv
FN:135,_ZN9__gnu_cxx13new_allocatorISt6vectorIiSaIiEEE9constructIS3_JRKS3_EEEvPT_DpOT0_
FN:135,_ZN9__gnu_cxx13new_allocatorISt6vectorIS1_IiSaIiEESaIS3_EEE9constructIS5_JRKS5_EEEvPT_DpOT0_
FN:140,_ZN9__gnu_cxx13new_allocatorISt6vectorIiSaIiEEE7destroyIS3_EEvPT_
FN:140,_ZN9__gnu_cxx13new_allocatorISt6vectorIS1_IiSaIiEESaIS3_EEE7destroyIS5_EEvPT_
FNDA:40,_ZN9__gnu_cxx13new_allocatorISt6vectorIS1_IiSaIiEESaIS3_EEEC2Ev
FNDA:2136,_ZN9__gnu_cxx13new_allocatorISt6vectorIiSaIiEEEC2Ev
FNDA:23704,_ZN9__gnu_cxx13new_allocatorIiEC2Ev
FNDA:36,_ZN9__gnu_cxx13new_allocatorISt6vectorIS1_IiSaIiEESaIS3_EEEC2ERKS6_
FNDA:12549,_ZN9__gnu_cxx13new_allocatorISt6vectorIiSaIiEEEC2ERKS4_
FNDA:108653,_ZN9__gnu_cxx13new_allocatorIiEC2ERKS1_
FNDA:76,_ZN9__gnu_cxx13new_allocatorISt6vectorIS1_IiSaIiEESaIS3_EEED2Ev
FNDA:14685,_ZN9__gnu_cxx13new_allocatorISt6vectorIiSaIiEEED2Ev
FNDA:132357,_ZN9__gnu_cxx13new_allocatorIiED2Ev
FNDA:8080,_ZN9__gnu_cxx13new_allocatorISt6vectorIiSaIiEEE8allocateEmPKv
FNDA:89,_ZN9__gnu_cxx13new_allocatorISt6vectorIS1_IiSaIiEESaIS3_EEE8allocateEmPKv
FNDA:63115,_ZN9__gnu_cxx13new_allocatorIiE8allocateEmPKv
FNDA:63115,_ZN9__gnu_cxx13new_allocatorIiE10deallocateEPim
FNDA:89,_ZN9__gnu_cxx13new_allocatorISt6vectorIS1_IiSaIiEESaIS3_EEE10deallocateEPS5_m
FNDA:8080,_ZN9__gnu_cxx13new_allocatorISt6vectorIiSaIiEEE10deallocateEPS3_m
FNDA:13608,_ZNK9__gnu_cxx13new_allocatorISt6vectorIiSaIiEEE8max_sizeEv
FNDA:267,_ZNK9__gnu_cxx13new_allocatorISt6vectorIS1_IiSaIiEESaIS3_EEE8max_sizeEv
FNDA:63171,_ZNK9__gnu_cxx13new_allocatorIiE8max_sizeEv
FNDA:948,_ZN9__gnu_cxx13new_allocatorISt6vectorIiSaIiEEE9constructIS3_JRKS3_EEEvPT_DpOT0_
FNDA:110,_ZN9__gnu_cxx13new_allocatorISt6vectorIS1_IiSaIiEESaIS3_EEE9constructIS5_JRKS5_EEEvPT_DpOT0_
FNDA:0,_ZN9__gnu_cxx13new_allocatorISt6vectorIiSaIiEEE7destroyIS3_EEvPT_
FNDA:0,_ZN9__gnu_cxx13new_allocatorISt6vectorIS1_IiSaIiEESaIS3_EEE7destroyIS5_EEvPT_
FNF:22
FNH:20
DA:79,25880
DA:81,121238
DA:86,147118
DA:99,71284
DA:101,71284
DA:102,0
DA:111,71284
DA:116,71284
DA:125,71284
DA:126,71284
DA:129,77046
DA:130,77046
DA:135,1058
DA:136,1058
DA:140,0
LF:15
LH:13
end_of_record
SF:/usr/include/c++/7/initializer_list
FN:71,_ZNKSt16initializer_listIiE4sizeEv
FN:71,_ZNKSt16initializer_listISt6vectorIiSaIiEEE4sizeEv
FN:75,_ZNKSt16initializer_listISt6vectorIiSaIiEEE5beginEv
FN:75,_ZNKSt16initializer_listIiE5beginEv
FN:79,_ZNKSt16initializer_listISt6vectorIiSaIiEEE3endEv
FN:79,_ZNKSt16initializer_listIiE3endEv
FNDA:162,_ZNKSt16initializer_listISt6vectorIiSaIiEEE4sizeEv
FNDA:23696,_ZNKSt16initializer_listIiE4sizeEv
FNDA:324,_ZNKSt16initializer_listISt6vectorIiSaIiEEE5beginEv
FNDA:47392,_ZNKSt16initializer_listIiE5beginEv
FNDA:162,_ZNKSt16initializer_listISt6vectorIiSaIiEEE3endEv
FNDA:23696,_ZNKSt16initializer_listIiE3endEv
FNF:6
FNH:6
DA:71,23858
DA:75,47716
DA:79,23858
LF:3
LH:3
end_of_record
SF:/usr/include/c++/7/iostream
DA:74,1
LF:1
LH:1
end_of_record
SF:/usr/include/c++/7/new
FN:168,_ZnwmPv
FN:174,_ZdlPvS_
FNDA:43131,_ZnwmPv
FNDA:0,_ZdlPvS_
FNF:2
FNH:1
DA:168,43131
DA:169,43131
DA:174,0
LF:3
LH:2
end_of_record
TN:
SF:/home/msaied/Documents/TPI-morfologia-matematica/lib/googletest-master/googletest/include/gtest/gtest-message.h
FN:85,_ZN7testing7MessageD2Ev
FNDA:0,_ZN7testing7MessageD2Ev
FNF:1
FNH:0
DA:85,0
LF:1
LH:0
end_of_record
SF:/home/msaied/Documents/TPI-morfologia-matematica/lib/googletest-master/googletest/include/gtest/gtest-printers.h
FN:258,_ZN16testing_internal26DefaultPrintNonContainerToIiEEvRKT_PSo
FN:311,_ZN7testing8internal19FormatForComparisonIiiE6FormatB5cxx11ERKi
FN:311,_ZN7testing8internal19FormatForComparisonISt6vectorIS2_IiSaIiEESaIS4_EES6_E6FormatB5cxx11ERKS6_
FN:385,_ZN7testing8internal33FormatForComparisonFailureMessageIiiEENSt7__cxx1112basic_stringIcSt11char_traitsIcESaIcEEERKT_RKT0_
FN:385,_ZN7testing8internal33FormatForComparisonFailureMessageISt6vectorIS2_IiSaIiEESaIS4_EES6_EENSt7__cxx1112basic_stringIcSt11char_traitsIcESaIcEEERKT_RKT0_
FN:414,_ZN7testing8internal14DefaultPrintToISt6vectorIS2_IiSaIiEESaIS4_EEEEvNS0_15WrapPrinterTypeILNS0_18DefaultPrinterTypeE0EEERKT_PSo
FN:414,_ZN7testing8internal14DefaultPrintToISt6vectorIiSaIiEEEEvNS0_15WrapPrinterTypeILNS0_18DefaultPrinterTypeE0EEERKT_PSo
FN:474,_ZN7testing8internal14DefaultPrintToIiEEvNS0_15WrapPrinterTypeILNS0_18DefaultPrinterTypeE3EEERKT_PSo
FN:491,_ZN7testing8internal7PrintToISt6vectorIiSaIiEEEEvRKT_PSo
FN:491,_ZN7testing8internal7PrintToISt6vectorIS2_IiSaIiEESaIS4_EEEEvRKT_PSo
FN:491,_ZN7testing8internal7PrintToIiEEvRKT_PSo
FN:753,_ZN7testing8internal16UniversalPrinterISt6vectorIS2_IiSaIiEESaIS4_EEE5PrintERKS6_PSo
FN:753,_ZN7testing8internal16UniversalPrinterISt6vectorIiSaIiEEE5PrintERKS4_PSo
FN:753,_ZN7testing8internal16UniversalPrinterIiE5PrintERKiPSo
FN:858,_ZN7testing8internal21UniversalTersePrinterISt6vectorIS2_IiSaIiEESaIS4_EEE5PrintERKS6_PSo
FN:858,_ZN7testing8internal21UniversalTersePrinterIiE5PrintERKiPSo
FN:927,_ZN7testing8internal14UniversalPrintISt6vectorIiSaIiEEEEvRKT_PSo
FN:927,_ZN7testing8internal14UniversalPrintIiEEvRKT_PSo
FN:927,_ZN7testing8internal14UniversalPrintISt6vectorIS2_IiSaIiEESaIS4_EEEEvRKT_PSo
FN:1065,_ZN7testing13PrintToStringIiEENSt7__cxx1112basic_stringIcSt11char_traitsIcESaIcEEERKT_
FN:1065,_ZN7testing13PrintToStringISt6vectorIS1_IiSaIiEESaIS3_EEEENSt7__cxx1112basic_stringIcSt11char_traitsIcESaIcEEERKT_
FNDA:0,_ZN16testing_internal26DefaultPrintNonContainerToIiEEvRKT_PSo
FNDA:0,_ZN7testing8internal19FormatForComparisonIiiE6FormatB5cxx11ERKi
FNDA:0,_ZN7testing8internal19FormatForComparisonISt6vectorIS2_IiSaIiEESaIS4_EES6_E6FormatB5cxx11ERKS6_
FNDA:0,_ZN7testing8internal33FormatForComparisonFailureMessageIiiEENSt7__cxx1112basic_stringIcSt11char_traitsIcESaIcEEERKT_RKT0_
FNDA:0,_ZN7testing8internal33FormatForComparisonFailureMessageISt6vectorIS2_IiSaIiEESaIS4_EES6_EENSt7__cxx1112basic_stringIcSt11char_traitsIcESaIcEEERKT_RKT0_
FNDA:0,_ZN7testing8internal14DefaultPrintToISt6vectorIiSaIiEEEEvNS0_15WrapPrinterTypeILNS0_18DefaultPrinterTypeE0EEERKT_PSo
FNDA:0,_ZN7testing8internal14DefaultPrintToISt6vectorIS2_IiSaIiEESaIS4_EEEEvNS0_15WrapPrinterTypeILNS0_18DefaultPrinterTypeE0EEERKT_PSo
FNDA:0,_ZN7testing8internal14DefaultPrintToIiEEvNS0_15WrapPrinterTypeILNS0_18DefaultPrinterTypeE3EEERKT_PSo
FNDA:0,_ZN7testing8internal7PrintToISt6vectorIiSaIiEEEEvRKT_PSo
FNDA:0,_ZN7testing8internal7PrintToIiEEvRKT_PSo
FNDA:0,_ZN7testing8internal7PrintToISt6vectorIS2_IiSaIiEESaIS4_EEEEvRKT_PSo
FNDA:0,_ZN7testing8internal16UniversalPrinterISt6vectorIiSaIiEEE5PrintERKS4_PSo
FNDA:0,_ZN7testing8internal16UniversalPrinterIiE5PrintERKiPSo
FNDA:0,_ZN7testing8internal16UniversalPrinterISt6vectorIS2_IiSaIiEESaIS4_EEE5PrintERKS6_PSo
FNDA:0,_ZN7testing8internal21UniversalTersePrinterIiE5PrintERKiPSo
FNDA:0,_ZN7testing8internal21UniversalTersePrinterISt6vectorIS2_IiSaIiEESaIS4_EEE5PrintERKS6_PSo
FNDA:0,_ZN7testing8internal14UniversalPrintISt6vectorIiSaIiEEEEvRKT_PSo
FNDA:0,_ZN7testing8internal14UniversalPrintIiEEvRKT_PSo
FNDA:0,_ZN7testing8internal14UniversalPrintISt6vectorIS2_IiSaIiEESaIS4_EEEEvRKT_PSo
FNDA:0,_ZN7testing13PrintToStringIiEENSt7__cxx1112basic_stringIcSt11char_traitsIcESaIcEEERKT_
FNDA:0,_ZN7testing13PrintToStringISt6vectorIS1_IiSaIiEESaIS3_EEEENSt7__cxx1112basic_stringIcSt11char_traitsIcESaIcEEERKT_
FNF:21
FNH:0
DA:258,0
DA:285,0
DA:286,0
DA:311,0
DA:312,0
DA:385,0
DA:387,0
DA:414,0
DA:416,0
DA:417,0
DA:418,0
DA:419,0
DA:420,0
DA:421,0
DA:422,0
DA:423,0
DA:424,0
DA:425,0
DA:428,0
DA:431,0
DA:434,0
DA:435,0
DA:437,0
DA:438,0
DA:474,0
DA:476,0
DA:477,0
DA:491,0
DA:511,0
DA:526,0
DA:753,0
DA:762,0
DA:763,0
DA:858,0
DA:859,0
DA:860,0
DA:927,0
DA:931,0
DA:932,0
DA:1065,0
DA:1066,0
DA:1067,0
DA:1068,0
LF:43
LH:0
end_of_record
SF:/home/msaied/Documents/TPI-morfologia-matematica/lib/googletest-master/googletest/include/gtest/gtest.h
FN:268,_ZN7testing15AssertionResultD2Ev
FN:304,_ZNK7testing15AssertionResultcvbEv
FN:313,_ZNK7testing15AssertionResult7messageEv
FN:318,_ZNK7testing15AssertionResult15failure_messageEv
FN:414,_ZN7testing4Test13SetUpTestCaseEv
FN:422,_ZN7testing4Test16TearDownTestCaseEv
FN:499,_ZN7testing4Test5SetupEv
FN:1414,_ZN7testing8internal18CmpHelperEQFailureISt6vectorIS2_IiSaIiEESaIS4_EES6_EENS_15AssertionResultEPKcS9_RKT_RKT0_
FN:1414,_ZN7testing8internal18CmpHelperEQFailureIiiEENS_15AssertionResultEPKcS4_RKT_RKT0_
FN:1426,_ZN7testing8internal11CmpHelperEQISt6vectorIS2_IiSaIiEESaIS4_EES6_EENS_15AssertionResultEPKcS9_RKT_RKT0_
FN:1426,_ZN7testing8internal11CmpHelperEQIiiEENS_15AssertionResultEPKcS4_RKT_RKT0_
FN:1454,_ZN7testing8internal8EqHelperILb0EE7CompareISt6vectorIS4_IiSaIiEESaIS6_EES8_EENS_15AssertionResultEPKcSB_RKT_RKT0_
FN:1454,_ZN7testing8internal8EqHelperILb0EE7CompareIiiEENS_15AssertionResultEPKcS6_RKT_RKT0_
FNDA:0,_ZN7testing15AssertionResultD2Ev
FNDA:0,_ZNK7testing15AssertionResultcvbEv
FNDA:0,_ZNK7testing15AssertionResult7messageEv
FNDA:0,_ZNK7testing15AssertionResult15failure_messageEv
FNDA:0,_ZN7testing4Test13SetUpTestCaseEv
FNDA:0,_ZN7testing4Test16TearDownTestCaseEv
FNDA:0,_ZN7testing4Test5SetupEv
FNDA:0,_ZN7testing8internal18CmpHelperEQFailureIiiEENS_15AssertionResultEPKcS4_RKT_RKT0_
FNDA:0,_ZN7testing8internal18CmpHelperEQFailureISt6vectorIS2_IiSaIiEESaIS4_EES6_EENS_15AssertionResultEPKcS9_RKT_RKT0_
FNDA:12,_ZN7testing8internal11CmpHelperEQIiiEENS_15AssertionResultEPKcS4_RKT_RKT0_
FNDA:0,_ZN7testing8internal11CmpHelperEQISt6vectorIS2_IiSaIiEESaIS4_EES6_EENS_15AssertionResultEPKcS9_RKT_RKT0_
FNDA:12,_ZN7testing8internal8EqHelperILb0EE7CompareIiiEENS_15AssertionResultEPKcS6_RKT_RKT0_
FNDA:0,_ZN7testing8internal8EqHelperILb0EE7CompareISt6vectorIS4_IiSaIiEESaIS6_EES8_EENS_15AssertionResultEPKcSB_RKT_RKT0_
FNF:13
FNH:2
DA:268,0
DA:304,0
DA:313,0
DA:314,0
DA:318,0
DA:414,0
DA:422,0
DA:499,0
DA:1414,0
DA:1421,0
DA:1426,12
DA:1430,12
DA:1431,12
DA:1434,0
DA:1454,12
DA:1458,12
LF:16
LH:5
end_of_record
SF:/home/msaied/Documents/TPI-morfologia-matematica/lib/googletest-master/googletest/include/gtest/internal/gtest-internal.h
FN:448,_ZN7testing8internal15TestFactoryBaseD2Ev
FN:448,_ZN7testing8internal15TestFactoryBaseD0Ev
FN:455,_ZN7testing8internal15TestFactoryBaseC2Ev
FN:464,_ZN7testing8internal15TestFactoryImplI63obtenerRegionConectadaTest_imagenEjemploPrueboQIteraciones_TestED2Ev
FN:464,_ZN7testing8internal15TestFactoryImplI74obtenerRegionConectadaTest_imagenActivadaSoloSemillaPueboQIteraciones_TestEC2Ev
FN:464,_ZN7testing8internal15TestFactoryImplI63obtenerRegionConectadaTest_imagenEjemploPrueboQIteraciones_TestED0Ev
FN:464,_ZN7testing8internal15TestFactoryImplI71obtenerRegionConectadaTest_imagenActivadaSoloSemillaPueboMatSalida_TestED0Ev
FN:464,_ZN7testing8internal15TestFactoryImplI71obtenerRegionConectadaTest_imagenActivadaSoloSemillaPueboMatSalida_TestEC2Ev
FN:464,_ZN7testing8internal15TestFactoryImplI74obtenerRegionConectadaTest_imagenActivadaSoloSemillaPueboQIteraciones_TestED2Ev
FN:464,_ZN7testing8internal15TestFactoryImplI54obtenerRegionConectadaTest_imagenEjemploPrueboMat_TestED2Ev
FN:464,_ZN7testing8internal15TestFactoryImplI54obtenerRegionConectadaTest_imagenEjemploPrueboMat_TestEC2Ev
FN:464,_ZN7testing8internal15TestFactoryImplI63obtenerRegionConectadaTest_imagenEjemploPrueboQIteraciones_TestEC2Ev
FN:464,_ZN7testing8internal15TestFactoryImplI71obtenerRegionConectadaTest_imagenActivadaSoloSemillaPueboMatSalida_TestED2Ev
FN:464,_ZN7testing8internal15TestFactoryImplI54obtenerRegionConectadaTest_imagenEjemploPrueboMat_TestED0Ev
FN:464,_ZN7testing8internal15TestFactoryImplI74obtenerRegionConectadaTest_imagenActivadaSoloSemillaPueboQIteraciones_TestED0Ev
FN:466,_ZN7testing8internal15TestFactoryImplI74obtenerRegionConectadaTest_imagenActivadaSoloSemillaPueboQIteraciones_TestE10CreateTestEv
FN:466,_ZN7testing8internal15TestFactoryImplI71obtenerRegionConectadaTest_imagenActivadaSoloSemillaPueboMatSalida_TestE10CreateTestEv
FN:466,_ZN7testing8internal15TestFactoryImplI63obtenerRegionConectadaTest_imagenEjemploPrueboQIteraciones_TestE10CreateTestEv
FN:466,_ZN7testing8internal15TestFactoryImplI54obtenerRegionConectadaTest_imagenEjemploPrueboMat_TestE10CreateTestEv
FN:486,_ZN7testing8internal12CodeLocationD2Ev
FN:487,_ZN7testing8internal12CodeLocationC2ERKNSt7__cxx1112basic_stringIcSt11char_traitsIcESaIcEEEi
FNDA:0,_ZN7testing8internal15TestFactoryBaseD0Ev
FNDA:0,_ZN7testing8internal15TestFactoryBaseD2Ev
FNDA:0,_ZN7testing8internal15TestFactoryBaseC2Ev
FNDA:6,_ZN7testing8internal15TestFactoryImplI71obtenerRegionConectadaTest_imagenActivadaSoloSemillaPueboMatSalida_TestED0Ev
FNDA:6,_ZN7testing8internal15TestFactoryImplI71obtenerRegionConectadaTest_imagenActivadaSoloSemillaPueboMatSalida_TestED2Ev
FNDA:6,_ZN7testing8internal15TestFactoryImplI74obtenerRegionConectadaTest_imagenActivadaSoloSemillaPueboQIteraciones_TestED0Ev
FNDA:6,_ZN7testing8internal15TestFactoryImplI74obtenerRegionConectadaTest_imagenActivadaSoloSemillaPueboQIteraciones_TestED2Ev
FNDA:6,_ZN7testing8internal15TestFactoryImplI54obtenerRegionConectadaTest_imagenEjemploPrueboMat_TestED0Ev
FNDA:6,_ZN7testing8internal15TestFactoryImplI54obtenerRegionConectadaTest_imagenEjemploPrueboMat_TestED2Ev
FNDA:6,_ZN7testing8internal15TestFactoryImplI63obtenerRegionConectadaTest_imagenEjemploPrueboQIteraciones_TestED0Ev
FNDA:6,_ZN7testing8internal15TestFactoryImplI63obtenerRegionConectadaTest_imagenEjemploPrueboQIteraciones_TestED2Ev
FNDA:6,_ZN7testing8internal15TestFactoryImplI63obtenerRegionConectadaTest_imagenEjemploPrueboQIteraciones_TestEC2Ev
FNDA:6,_ZN7testing8internal15TestFactoryImplI54obtenerRegionConectadaTest_imagenEjemploPrueboMat_TestEC2Ev
FNDA:6,_ZN7testing8internal15TestFactoryImplI74obtenerRegionConectadaTest_imagenActivadaSoloSemillaPueboQIteraciones_TestEC2Ev
FNDA:6,_ZN7testing8internal15TestFactoryImplI71obtenerRegionConectadaTest_imagenActivadaSoloSemillaPueboMatSalida_TestEC2Ev
FNDA:6,_ZN7testing8internal15TestFactoryImplI71obtenerRegionConectadaTest_imagenActivadaSoloSemillaPueboMatSalida_TestE10CreateTestEv
FNDA:6,_ZN7testing8internal15TestFactoryImplI74obtenerRegionConectadaTest_imagenActivadaSoloSemillaPueboQIteraciones_TestE10CreateTestEv
FNDA:6,_ZN7testing8internal15TestFactoryImplI54obtenerRegionConectadaTest_imagenEjemploPrueboMat_TestE10CreateTestEv
FNDA:6,_ZN7testing8internal15TestFactoryImplI63obtenerRegionConectadaTest_imagenEjemploPrueboQIteraciones_TestE10CreateTestEv
FNDA:0,_ZN7testing8internal12CodeLocationD2Ev
FNDA:0,_ZN7testing8internal12CodeLocationC2ERKNSt7__cxx1112basic_stringIcSt11char_traitsIcESaIcEEEi
FNF:21
FNH:16
DA:448,0
DA:455,0
DA:464,72
DA:466,24
DA:486,0
DA:487,0
DA:488,0
LF:7
LH:2
end_of_record
SF:/home/msaied/Documents/TPI-morfologia-matematica/lib/googletest-master/googletest/include/gtest/internal/gtest-port.h
FN:1185,_ZN7testing8internal10scoped_ptrINSt7__cxx1118basic_stringstreamIcSt11char_traitsIcESaIcEEEED2Ev
FN:1185,_ZN7testing8internal10scoped_ptrINSt7__cxx1112basic_stringIcSt11char_traitsIcESaIcEEEED2Ev
FN:1188,_ZNK7testing8internal10scoped_ptrINSt7__cxx1112basic_stringIcSt11char_traitsIcESaIcEEEEptEv
FN:1189,_ZNK7testing8internal10scoped_ptrINSt7__cxx1112basic_stringIcSt11char_traitsIcESaIcEEEE3getEv
FN:1197,_ZN7testing8internal10scoped_ptrINSt7__cxx1112basic_stringIcSt11char_traitsIcESaIcEEEE5resetEPS7_
FN:1197,_ZN7testing8internal10scoped_ptrINSt7__cxx1118basic_stringstreamIcSt11char_traitsIcESaIcEEEE5resetEPS7_
FNDA:0,_ZN7testing8internal10scoped_ptrINSt7__cxx1112basic_stringIcSt11char_traitsIcESaIcEEEED2Ev
FNDA:0,_ZN7testing8internal10scoped_ptrINSt7__cxx1118basic_stringstreamIcSt11char_traitsIcESaIcEEEED2Ev
FNDA:0,_ZNK7testing8internal10scoped_ptrINSt7__cxx1112basic_stringIcSt11char_traitsIcESaIcEEEEptEv
FNDA:0,_ZNK7testing8internal10scoped_ptrINSt7__cxx1112basic_stringIcSt11char_traitsIcESaIcEEEE3getEv
FNDA:0,_ZN7testing8internal10scoped_ptrINSt7__cxx1118basic_stringstreamIcSt11char_traitsIcESaIcEEEE5resetEPS7_
FNDA:0,_ZN7testing8internal10scoped_ptrINSt7__cxx1112basic_stringIcSt11char_traitsIcESaIcEEEE5resetEPS7_
FNF:6
FNH:0
DA:1185,0
DA:1188,0
DA:1189,0
DA:1197,0
DA:1198,0
DA:1199,0
DA:1200,0
DA:1202,0
DA:1204,0
LF:9
LH:0
end_of_record
SF:/home/msaied/Documents/TPI-morfologia-matematica/tests/ej6TEST.cpp
FN:4,_ZN71obtenerRegionConectadaTest_imagenActivadaSoloSemillaPueboMatSalida_Test8TestBodyEv
FN:4,_ZN71obtenerRegionConectadaTest_imagenActivadaSoloSemillaPueboMatSalida_TestD0Ev
FN:4,_ZN71obtenerRegionConectadaTest_imagenActivadaSoloSemillaPueboMatSalida_TestC2Ev
FN:4,_ZN71obtenerRegionConectadaTest_imagenActivadaSoloSemillaPueboMatSalida_TestD2Ev
FN:24,_ZN74obtenerRegionConectadaTest_imagenActivadaSoloSemillaPueboQIteraciones_TestC2Ev
FN:24,_ZN74obtenerRegionConectadaTest_imagenActivadaSoloSemillaPueboQIteraciones_TestD2Ev
FN:24,_ZN74obtenerRegionConectadaTest_imagenActivadaSoloSemillaPueboQIteraciones_TestD0Ev
FN:24,_ZN74obtenerRegionConectadaTest_imagenActivadaSoloSemillaPueboQIteraciones_Test8TestBodyEv
FN:43,_ZN54obtenerRegionConectadaTest_imagenEjemploPrueboMat_TestD2Ev
FN:43,_ZN54obtenerRegionConectadaTest_imagenEjemploPrueboMat_TestD0Ev
FN:43,_ZN54obtenerRegionConectadaTest_imagenEjemploPrueboMat_TestC2Ev
FN:43,_ZN54obtenerRegionConectadaTest_imagenEjemploPrueboMat_Test8TestBodyEv
FN:76,_ZN63obtenerRegionConectadaTest_imagenEjemploPrueboQIteraciones_TestD0Ev
FN:76,_ZN63obtenerRegionConectadaTest_imagenEjemploPrueboQIteraciones_Test8TestBodyEv
FN:76,_ZN63obtenerRegionConectadaTest_imagenEjemploPrueboQIteraciones_TestC2Ev
FN:76,_ZN63obtenerRegionConectadaTest_imagenEjemploPrueboQIteraciones_TestD2Ev
FN:95,_Z41__static_initialization_and_destruction_0ii
FN:95,_GLOBAL__sub_I__ZN71obtenerRegionConectadaTest_imagenActivadaSoloSemillaPueboMatSalida_Test10test_info_E
FNDA:6,_ZN71obtenerRegionConectadaTest_imagenActivadaSoloSemillaPueboMatSalida_TestD0Ev
FNDA:6,_ZN71obtenerRegionConectadaTest_imagenActivadaSoloSemillaPueboMatSalida_TestD2Ev
FNDA:6,_ZN71obtenerRegionConectadaTest_imagenActivadaSoloSemillaPueboMatSalida_Test8TestBodyEv
FNDA:6,_ZN71obtenerRegionConectadaTest_imagenActivadaSoloSemillaPueboMatSalida_TestC2Ev
FNDA:6,_ZN74obtenerRegionConectadaTest_imagenActivadaSoloSemillaPueboQIteraciones_TestD0Ev
FNDA:6,_ZN74obtenerRegionConectadaTest_imagenActivadaSoloSemillaPueboQIteraciones_TestD2Ev
FNDA:6,_ZN74obtenerRegionConectadaTest_imagenActivadaSoloSemillaPueboQIteraciones_Test8TestBodyEv
FNDA:6,_ZN74obtenerRegionConectadaTest_imagenActivadaSoloSemillaPueboQIteraciones_TestC2Ev
FNDA:6,_ZN54obtenerRegionConectadaTest_imagenEjemploPrueboMat_TestD0Ev
FNDA:6,_ZN54obtenerRegionConectadaTest_imagenEjemploPrueboMat_TestD2Ev
FNDA:6,_ZN54obtenerRegionConectadaTest_imagenEjemploPrueboMat_Test8TestBodyEv
FNDA:6,_ZN54obtenerRegionConectadaTest_imagenEjemploPrueboMat_TestC2Ev
FNDA:6,_ZN63obtenerRegionConectadaTest_imagenEjemploPrueboQIteraciones_TestD0Ev
FNDA:6,_ZN63obtenerRegionConectadaTest_imagenEjemploPrueboQIteraciones_TestD2Ev
FNDA:6,_ZN63obtenerRegionConectadaTest_imagenEjemploPrueboQIteraciones_Test8TestBodyEv
FNDA:6,_ZN63obtenerRegionConectadaTest_imagenEjemploPrueboQIteraciones_TestC2Ev
FNDA:6,_GLOBAL__sub_I__ZN71obtenerRegionConectadaTest_imagenActivadaSoloSemillaPueboMatSalida_Test10test_info_E
FNDA:6,_Z41__static_initialization_and_destruction_0ii
FNF:18
FNH:18
DA:4,30
DA:5,6
DA:15,12
DA:16,12
DA:18,6
DA:20,6
DA:22,6
DA:24,30
DA:25,6
DA:35,12
DA:36,12
DA:38,6
DA:40,6
DA:41,6
DA:43,30
DA:44,6
DA:56,12
DA:57,12
DA:69,12
DA:71,6
DA:73,6
DA:74,6
DA:76,30
DA:77,6
DA:89,12
DA:90,12
DA:92,6
DA:94,6
DA:95,24
LF:29
LH:29
end_of_record
SF:/usr/include/c++/7/bits/alloc_traits.h
FN:435,_ZNSt16allocator_traitsISaIiEE8allocateERS0_m
FN:435,_ZNSt16allocator_traitsISaISt6vectorIiSaIiEEEE8allocateERS3_m
FN:461,_ZNSt16allocator_traitsISaIiEE10deallocateERS0_Pim
FN:461,_ZNSt16allocator_traitsISaISt6vectorIiSaIiEEEE10deallocateERS3_PS2_m
FN:504,_ZNSt16allocator_traitsISaIiEE37select_on_container_copy_constructionERKS0_
FNDA:0,_ZNSt16allocator_traitsISaISt6vectorIiSaIiEEEE8allocateERS3_m
FNDA:0,_ZNSt16allocator_traitsISaIiEE8allocateERS0_m
FNDA:0,_ZNSt16allocator_traitsISaISt6vectorIiSaIiEEEE10deallocateERS3_PS2_m
FNDA:0,_ZNSt16allocator_traitsISaIiEE10deallocateERS0_Pim
FNDA:0,_ZNSt16allocator_traitsISaIiEE37select_on_container_copy_constructionERKS0_
FNF:5
FNH:0
DA:435,0
DA:436,0
DA:461,0
DA:462,0
DA:504,0
DA:505,0
LF:6
LH:0
end_of_record
SF:/usr/include/c++/7/bits/allocator.h
FN:131,_ZNSaIiEC2Ev
FN:131,_ZNSaISt6vectorIiSaIiEEEC2Ev
FN:133,_ZNSaIiEC2ERKS_
FN:133,_ZNSaISt6vectorIiSaIiEEEC2ERKS2_
FN:139,_ZNSaIiED2Ev
FN:139,_ZNSaISt6vectorIiSaIiEEED2Ev
FNDA:0,_ZNSaISt6vectorIiSaIiEEEC2Ev
FNDA:0,_ZNSaIiEC2Ev
FNDA:0,_ZNSaISt6vectorIiSaIiEEEC2ERKS2_
FNDA:0,_ZNSaIiEC2ERKS_
FNDA:0,_ZNSaISt6vectorIiSaIiEEED2Ev
FNDA:0,_ZNSaIiED2Ev
FNF:6
FNH:0
DA:131,0
DA:133,0
DA:134,0
DA:139,0
LF:4
LH:0
end_of_record
SF:/usr/include/c++/7/bits/cpp_type_traits.h
FN:408,_ZSt12__miter_baseIN9__gnu_cxx17__normal_iteratorIPKiSt6vectorIiSaIiEEEEET_S8_
FN:408,_ZSt12__miter_baseIPKiET_S2_
FNDA:0,_ZSt12__miter_baseIN9__gnu_cxx17__normal_iteratorIPKiSt6vectorIiSaIiEEEEET_S8_
FNDA:0,_ZSt12__miter_baseIPKiET_S2_
FNF:2
FNH:0
DA:408,0
DA:409,0
LF:2
LH:0
end_of_record
SF:/usr/include/c++/7/bits/ios_base.h
FN:129,_ZStorSt13_Ios_OpenmodeS_
FNDA:0,_ZStorSt13_Ios_OpenmodeS_
FNF:1
FNH:0
DA:129,0
DA:130,0
LF:2
LH:0
end_of_record
SF:/usr/include/c++/7/bits/move.h
FN:47,_ZSt11__addressofISt6vectorIiSaIiEEEPT_RS3_
FN:73,_ZSt7forwardIRKSt6vectorIiSaIiEEEOT_RNSt16remove_referenceIS5_E4typeE
FNDA:0,_ZSt11__addressofISt6vectorIiSaIiEEEPT_RS3_
FNDA:0,_ZSt7forwardIRKSt6vectorIiSaIiEEEOT_RNSt16remove_referenceIS5_E4typeE
FNF:2
FNH:0
DA:47,0
DA:48,0
DA:73,0
DA:74,0
LF:4
LH:0
end_of_record
SF:/usr/include/c++/7/bits/stl_algobase.h
FN:277,_ZSt12__niter_baseIPiET_S1_
FN:277,_ZSt12__niter_baseIPKiET_S2_
FN:357,_ZNSt11__copy_moveILb0ELb1ESt26random_access_iterator_tagE8__copy_mIiEEPT_PKS3_S6_S4_
FN:375,_ZSt13__copy_move_aILb0EPKiPiET1_T0_S4_S3_
FN:420,_ZSt14__copy_move_a2ILb0EN9__gnu_cxx17__normal_iteratorIPKiSt6vectorIiSaIiEEEEPiET1_T0_SA_S9_
FN:420,_ZSt14__copy_move_a2ILb0EPKiPiET1_T0_S4_S3_
FN:446,_ZSt4copyIN9__gnu_cxx17__normal_iteratorIPKiSt6vectorIiSaIiEEEEPiET0_T_SA_S9_
FN:446,_ZSt4copyIPKiPiET0_T_S4_S3_
FN:797,_ZNSt7__equalILb0EE5equalIPKSt6vectorIiSaIiEES6_EEbT_S7_T0_
FN:811,_ZNSt7__equalILb1EE5equalIiEEbPKT_S4_S4_
FN:821,_ZSt11__equal_auxIPKSt6vectorIiSaIiEES4_EbT_S5_T0_
FN:821,_ZSt11__equal_auxIPKiS1_EbT_S2_T0_
FN:1041,_ZSt5equalIN9__gnu_cxx17__normal_iteratorIPKSt6vectorIiSaIiEES2_IS4_SaIS4_EEEES9_EbT_SA_T0_
FN:1041,_ZSt5equalIN9__gnu_cxx17__normal_iteratorIPKiSt6vectorIiSaIiEEEES7_EbT_S8_T0_
FNDA:0,_ZSt12__niter_baseIPiET_S1_
FNDA:0,_ZSt12__niter_baseIPKiET_S2_
FNDA:0,_ZNSt11__copy_moveILb0ELb1ESt26random_access_iterator_tagE8__copy_mIiEEPT_PKS3_S6_S4_
FNDA:0,_ZSt13__copy_move_aILb0EPKiPiET1_T0_S4_S3_
FNDA:0,_ZSt14__copy_move_a2ILb0EN9__gnu_cxx17__normal_iteratorIPKiSt6vectorIiSaIiEEEEPiET1_T0_SA_S9_
FNDA:0,_ZSt14__copy_move_a2ILb0EPKiPiET1_T0_S4_S3_
FNDA:0,_ZSt4copyIN9__gnu_cxx17__normal_iteratorIPKiSt6vectorIiSaIiEEEEPiET0_T_SA_S9_
FNDA:0,_ZSt4copyIPKiPiET0_T_S4_S3_
FNDA:0,_ZNSt7__equalILb0EE5equalIPKSt6vectorIiSaIiEES6_EEbT_S7_T0_
FNDA:0,_ZNSt7__equalILb1EE5equalIiEEbPKT_S4_S4_
FNDA:0,_ZSt11__equal_auxIPKiS1_EbT_S2_T0_
FNDA:0,_ZSt11__equal_auxIPKSt6vectorIiSaIiEES4_EbT_S5_T0_
FNDA:0,_ZSt5equalIN9__gnu_cxx17__normal_iteratorIPKiSt6vectorIiSaIiEEEES7_EbT_S8_T0_
FNDA:0,_ZSt5equalIN9__gnu_cxx17__normal_iteratorIPKSt6vectorIiSaIiEES2_IS4_SaIS4_EEEES9_EbT_SA_T0_
FNF:14
FNH:0
DA:277,0
DA:278,0
DA:357,0
DA:366,0
DA:367,0
DA:368,0
DA:369,0
DA:375,0
DA:380,0
DA:386,0
DA:420,0
DA:422,0
DA:424,0
DA:446,0
DA:455,0
DA:456,0
DA:797,0
DA:799,0
DA:800,0
DA:801,0
DA:802,0
DA:811,0
DA:813,0
DA:814,0
DA:815,0
DA:821,0
DA:825,0
DA:831,0
DA:1041,0
DA:1051,0
DA:1053,0
LF:31
LH:0
end_of_record
SF:/usr/include/c++/7/bits/stl_construct.h
FN:74,_ZSt10_ConstructISt6vectorIiSaIiEEJRKS2_EEvPT_DpOT0_
FN:97,_ZSt8_DestroyISt6vectorIiSaIiEEEvPT_
FN:105,_ZNSt12_Destroy_auxILb0EE9__destroyIPSt6vectorIiSaIiEEEEvT_S6_
FN:117,_ZNSt12_Destroy_auxILb1EE9__destroyIPiEEvT_S3_
FN:127,_ZSt8_DestroyIPSt6vectorIiSaIiEEEvT_S4_
FN:127,_ZSt8_DestroyIPiEvT_S1_
FN:203,_ZSt8_DestroyIPiiEvT_S1_RSaIT0_E
FN:203,_ZSt8_DestroyIPSt6vectorIiSaIiEES2_EvT_S4_RSaIT0_E
FNDA:0,_ZSt10_ConstructISt6vectorIiSaIiEEJRKS2_EEvPT_DpOT0_
FNDA:0,_ZSt8_DestroyISt6vectorIiSaIiEEEvPT_
FNDA:0,_ZNSt12_Destroy_auxILb0EE9__destroyIPSt6vectorIiSaIiEEEEvT_S6_
FNDA:0,_ZNSt12_Destroy_auxILb1EE9__destroyIPiEEvT_S3_
FNDA:0,_ZSt8_DestroyIPSt6vectorIiSaIiEEEvT_S4_
FNDA:0,_ZSt8_DestroyIPiEvT_S1_
FNDA:0,_ZSt8_DestroyIPSt6vectorIiSaIiEES2_EvT_S4_RSaIT0_E
FNDA:0,_ZSt8_DestroyIPiiEvT_S1_RSaIT0_E
FNF:8
FNH:0
DA:74,0
DA:75,0
DA:97,0
DA:98,0
DA:105,0
DA:107,0
DA:108,0
DA:109,0
DA:117,0
DA:127,0
DA:137,0
DA:138,0
DA:203,0
DA:206,0
DA:207,0
LF:15
LH:0
end_of_record
SF:/usr/include/c++/7/bits/stl_iterator.h
FN:782,_ZN9__gnu_cxx17__normal_iteratorIPKiSt6vectorIiSaIiEEEC2ERKS2_
FN:782,_ZN9__gnu_cxx17__normal_iteratorIPKSt6vectorIiSaIiEES1_IS3_SaIS3_EEEC2ERKS5_
FN:795,_ZNK9__gnu_cxx17__normal_iteratorIPKSt6vectorIiSaIiEES1_IS3_SaIS3_EEEdeEv
FN:795,_ZNK9__gnu_cxx17__normal_iteratorIPKiSt6vectorIiSaIiEEEdeEv
FN:803,_ZN9__gnu_cxx17__normal_iteratorIPKiSt6vectorIiSaIiEEEppEv
FN:803,_ZN9__gnu_cxx17__normal_iteratorIPKSt6vectorIiSaIiEES1_IS3_SaIS3_EEEppEv
FN:847,_ZNK9__gnu_cxx17__normal_iteratorIPKiSt6vectorIiSaIiEEE4baseEv
FN:847,_ZNK9__gnu_cxx17__normal_iteratorIPKSt6vectorIiSaIiEES1_IS3_SaIS3_EEE4baseEv
FN:883,_ZN9__gnu_cxxneIPKiSt6vectorIiSaIiEEEEbRKNS_17__normal_iteratorIT_T0_EESB_
FN:883,_ZN9__gnu_cxxneIPKSt6vectorIiSaIiEES1_IS3_SaIS3_EEEEbRKNS_17__normal_iteratorIT_T0_EESD_
FN:986,_ZSt12__niter_baseIPKiSt6vectorIiSaIiEEET_N9__gnu_cxx17__normal_iteratorIS5_T0_EE
FN:986,_ZSt12__niter_baseIPKSt6vectorIiSaIiEES0_IS2_SaIS2_EEET_N9__gnu_cxx17__normal_iteratorIS7_T0_EE
FNDA:0,_ZN9__gnu_cxx17__normal_iteratorIPKiSt6vectorIiSaIiEEEC2ERKS2_
FNDA:0,_ZN9__gnu_cxx17__normal_iteratorIPKSt6vectorIiSaIiEES1_IS3_SaIS3_EEEC2ERKS5_
FNDA:0,_ZNK9__gnu_cxx17__normal_iteratorIPKiSt6vectorIiSaIiEEEdeEv
FNDA:0,_ZNK9__gnu_cxx17__normal_iteratorIPKSt6vectorIiSaIiEES1_IS3_SaIS3_EEEdeEv
FNDA:0,_ZN9__gnu_cxx17__normal_iteratorIPKiSt6vectorIiSaIiEEEppEv
FNDA:0,_ZN9__gnu_cxx17__normal_iteratorIPKSt6vectorIiSaIiEES1_IS3_SaIS3_EEEppEv
FNDA:0,_ZNK9__gnu_cxx17__normal_iteratorIPKiSt6vectorIiSaIiEEE4baseEv
FNDA:0,_ZNK9__gnu_cxx17__normal_iteratorIPKSt6vectorIiSaIiEES1_IS3_SaIS3_EEE4baseEv
FNDA:0,_ZN9__gnu_cxxneIPKiSt6vectorIiSaIiEEEEbRKNS_17__normal_iteratorIT_T0_EESB_
FNDA:0,_ZN9__gnu_cxxneIPKSt6vectorIiSaIiEES1_IS3_SaIS3_EEEEbRKNS_17__normal_iteratorIT_T0_EESD_
FNDA:0,_ZSt12__niter_baseIPKiSt6vectorIiSaIiEEET_N9__gnu_cxx17__normal_iteratorIS5_T0_EE
FNDA:0,_ZSt12__niter_baseIPKSt6vectorIiSaIiEES0_IS2_SaIS2_EEET_N9__gnu_cxx17__normal_iteratorIS7_T0_EE
FNF:12
FNH:0
DA:782,0
DA:783,0
DA:795,0
DA:796,0
DA:803,0
DA:805,0
DA:806,0
DA:847,0
DA:848,0
DA:883,0
DA:886,0
DA:986,0
DA:987,0
LF:13
LH:0
end_of_record
SF:/usr/include/c++/7/bits/stl_iterator_base_funcs.h
FN:98,_ZSt10__distanceIPKSt6vectorIiSaIiEEENSt15iterator_traitsIT_E15difference_typeES6_S6_St26random_access_iterator_tag
FN:98,_ZSt10__distanceIPKiENSt15iterator_traitsIT_E15difference_typeES3_S3_St26random_access_iterator_tag
FN:138,_ZSt8distanceIPKSt6vectorIiSaIiEEENSt15iterator_traitsIT_E15difference_typeES6_S6_
FN:138,_ZSt8distanceIPKiENSt15iterator_traitsIT_E15difference_typeES3_S3_
FNDA:0,_ZSt10__distanceIPKSt6vectorIiSaIiEEENSt15iterator_traitsIT_E15difference_typeES6_S6_St26random_access_iterator_tag
FNDA:0,_ZSt10__distanceIPKiENSt15iterator_traitsIT_E15difference_typeES3_S3_St26random_access_iterator_tag
FNDA:0,_ZSt8distanceIPKSt6vectorIiSaIiEEENSt15iterator_traitsIT_E15difference_typeES6_S6_
FNDA:0,_ZSt8distanceIPKiENSt15iterator_traitsIT_E15difference_typeES3_S3_
FNF:4
FNH:0
DA:98,0
DA:104,0
DA:138,0
DA:141,0
DA:142,0
LF:5
LH:0
end_of_record
SF:/usr/include/c++/7/bits/stl_iterator_base_types.h
FN:205,_ZSt19__iterator_categoryIPKSt6vectorIiSaIiEEENSt15iterator_traitsIT_E17iterator_categoryERKS6_
FN:205,_ZSt19__iterator_categoryIPKiENSt15iterator_traitsIT_E17iterator_categoryERKS3_
FNDA:0,_ZSt19__iterator_categoryIPKSt6vectorIiSaIiEEENSt15iterator_traitsIT_E17iterator_categoryERKS6_
FNDA:0,_ZSt19__iterator_categoryIPKiENSt15iterator_traitsIT_E17iterator_categoryERKS3_
FNF:2
FNH:0
DA:205,0
DA:206,0
LF:2
LH:0
end_of_record
SF:/usr/include/c++/7/bits/stl_uninitialized.h
FN:76,_ZNSt20__uninitialized_copyILb0EE13__uninit_copyIPKSt6vectorIiSaIiEEPS4_EET0_T_S9_S8_
FN:99,_ZNSt20__uninitialized_copyILb1EE13__uninit_copyIN9__gnu_cxx17__normal_iteratorIPKiSt6vectorIiSaIiEEEEPiEET0_T_SC_SB_
FN:99,_ZNSt20__uninitialized_copyILb1EE13__uninit_copyIPKiPiEET0_T_S6_S5_
FN:115,_ZSt18uninitialized_copyIPKiPiET0_T_S4_S3_
FN:115,_ZSt18uninitialized_copyIPKSt6vectorIiSaIiEEPS2_ET0_T_S7_S6_
FN:115,_ZSt18uninitialized_copyIN9__gnu_cxx17__normal_iteratorIPKiSt6vectorIiSaIiEEEEPiET0_T_SA_S9_
FN:287,_ZSt22__uninitialized_copy_aIN9__gnu_cxx17__normal_iteratorIPKiSt6vectorIiSaIiEEEEPiiET0_T_SA_S9_RSaIT1_E
FN:287,_ZSt22__uninitialized_copy_aIPKSt6vectorIiSaIiEEPS2_S2_ET0_T_S7_S6_RSaIT1_E
FN:287,_ZSt22__uninitialized_copy_aIPKiPiiET0_T_S4_S3_RSaIT1_E
FNDA:0,_ZNSt20__uninitialized_copyILb0EE13__uninit_copyIPKSt6vectorIiSaIiEEPS4_EET0_T_S9_S8_
FNDA:0,_ZNSt20__uninitialized_copyILb1EE13__uninit_copyIN9__gnu_cxx17__normal_iteratorIPKiSt6vectorIiSaIiEEEEPiEET0_T_SC_SB_
FNDA:0,_ZNSt20__uninitialized_copyILb1EE13__uninit_copyIPKiPiEET0_T_S6_S5_
FNDA:0,_ZSt18uninitialized_copyIN9__gnu_cxx17__normal_iteratorIPKiSt6vectorIiSaIiEEEEPiET0_T_SA_S9_
FNDA:0,_ZSt18uninitialized_copyIPKSt6vectorIiSaIiEEPS2_ET0_T_S7_S6_
FNDA:0,_ZSt18uninitialized_copyIPKiPiET0_T_S4_S3_
FNDA:0,_ZSt22__uninitialized_copy_aIN9__gnu_cxx17__normal_iteratorIPKiSt6vectorIiSaIiEEEEPiiET0_T_SA_S9_RSaIT1_E
FNDA:0,_ZSt22__uninitialized_copy_aIPKSt6vectorIiSaIiEEPS2_S2_ET0_T_S7_S6_RSaIT1_E
FNDA:0,_ZSt22__uninitialized_copy_aIPKiPiiET0_T_S4_S3_RSaIT1_E
FNF:9
FNH:0
DA:76,0
DA:79,0
DA:82,0
DA:83,0
DA:84,0
DA:86,0
DA:88,0
DA:89,0
DA:99,0
DA:101,0
DA:115,0
DA:128,0
DA:134,0
DA:287,0
DA:289,0
LF:15
LH:0
end_of_record
SF:/usr/include/c++/7/bits/stl_vector.h
FN:81,_ZNSt12_Vector_baseIiSaIiEE12_Vector_implD2Ev
FN:81,_ZNSt12_Vector_baseISt6vectorIiSaIiEESaIS2_EE12_Vector_implD2Ev
FN:92,_ZNSt12_Vector_baseIiSaIiEE12_Vector_implC2ERKS0_
FN:92,_ZNSt12_Vector_baseISt6vectorIiSaIiEESaIS2_EE12_Vector_implC2ERKS3_
FN:115,_ZNSt12_Vector_baseISt6vectorIiSaIiEESaIS2_EE19_M_get_Tp_allocatorEv
FN:115,_ZNSt12_Vector_baseIiSaIiEE19_M_get_Tp_allocatorEv
FN:119,_ZNKSt12_Vector_baseIiSaIiEE19_M_get_Tp_allocatorEv
FN:129,_ZNSt12_Vector_baseISt6vectorIiSaIiEESaIS2_EEC2ERKS3_
FN:129,_ZNSt12_Vector_baseIiSaIiEEC2ERKS0_
FN:136,_ZNSt12_Vector_baseIiSaIiEEC2EmRKS0_
FN:161,_ZNSt12_Vector_baseIiSaIiEED2Ev
FN:161,_ZNSt12_Vector_baseISt6vectorIiSaIiEESaIS2_EED2Ev
FN:169,_ZNSt12_Vector_baseIiSaIiEE11_M_allocateEm
FN:169,_ZNSt12_Vector_baseISt6vectorIiSaIiEESaIS2_EE11_M_allocateEm
FN:176,_ZNSt12_Vector_baseIiSaIiEE13_M_deallocateEPim
FN:176,_ZNSt12_Vector_baseISt6vectorIiSaIiEESaIS2_EE13_M_deallocateEPS2_m
FN:185,_ZNSt12_Vector_baseIiSaIiEE17_M_create_storageEm
FN:326,_ZNSt6vectorIiSaIiEEC2ERKS1_
FN:383,_ZNSt6vectorIS_IiSaIiEESaIS1_EEC2ESt16initializer_listIS1_ERKS2_
FN:383,_ZNSt6vectorIiSaIiEEC2ESt16initializer_listIiERKS0_
FN:433,_ZNSt6vectorIS_IiSaIiEESaIS1_EED2Ev
FN:433,_ZNSt6vectorIiSaIiEED2Ev
FN:572,_ZNKSt6vectorIS_IiSaIiEESaIS1_EE5beginEv
FN:572,_ZNKSt6vectorIiSaIiEE5beginEv
FN:590,_ZNKSt6vectorIiSaIiEE3endEv
FN:590,_ZNKSt6vectorIS_IiSaIiEESaIS1_EE3endEv
FN:670,_ZNKSt6vectorIiSaIiEE4sizeEv
FN:670,_ZNKSt6vectorIS_IiSaIiEESaIS1_EE4sizeEv
FN:1324,_ZNSt6vectorIiSaIiEE19_M_range_initializeIPKiEEvT_S5_St20forward_iterator_tag
FN:1324,_ZNSt6vectorIS_IiSaIiEESaIS1_EE19_M_range_initializeIPKS1_EEvT_S7_St20forward_iterator_tag
FN:1601,_ZSteqIiSaIiEEbRKSt6vectorIT_T0_ES6_
FN:1601,_ZSteqISt6vectorIiSaIiEESaIS2_EEbRKS0_IT_T0_ES8_
FNDA:0,_ZNSt12_Vector_baseISt6vectorIiSaIiEESaIS2_EE12_Vector_implD2Ev
FNDA:0,_ZNSt12_Vector_baseIiSaIiEE12_Vector_implD2Ev
FNDA:0,_ZNSt12_Vector_baseISt6vectorIiSaIiEESaIS2_EE12_Vector_implC2ERKS3_
FNDA:0,_ZNSt12_Vector_baseIiSaIiEE12_Vector_implC2ERKS0_
FNDA:0,_ZNSt12_Vector_baseISt6vectorIiSaIiEESaIS2_EE19_M_get_Tp_allocatorEv
FNDA:0,_ZNSt12_Vector_baseIiSaIiEE19_M_get_Tp_allocatorEv
FNDA:0,_ZNKSt12_Vector_baseIiSaIiEE19_M_get_Tp_allocatorEv
FNDA:0,_ZNSt12_Vector_baseISt6vectorIiSaIiEESaIS2_EEC2ERKS3_
FNDA:0,_ZNSt12_Vector_baseIiSaIiEEC2ERKS0_
FNDA:0,_ZNSt12_Vector_baseIiSaIiEEC2EmRKS0_
FNDA:0,_ZNSt12_Vector_baseISt6vectorIiSaIiEESaIS2_EED2Ev
FNDA:0,_ZNSt12_Vector_baseIiSaIiEED2Ev
FNDA:0,_ZNSt12_Vector_baseISt6vectorIiSaIiEESaIS2_EE11_M_allocateEm
FNDA:0,_ZNSt12_Vector_baseIiSaIiEE11_M_allocateEm
FNDA:0,_ZNSt12_Vector_baseISt6vectorIiSaIiEESaIS2_EE13_M_deallocateEPS2_m
FNDA:0,_ZNSt12_Vector_baseIiSaIiEE13_M_deallocateEPim
FNDA:0,_ZNSt12_Vector_baseIiSaIiEE17_M_create_storageEm
FNDA:0,_ZNSt6vectorIiSaIiEEC2ERKS1_
FNDA:0,_ZNSt6vectorIS_IiSaIiEESaIS1_EEC2ESt16initializer_listIS1_ERKS2_
FNDA:0,_ZNSt6vectorIiSaIiEEC2ESt16initializer_listIiERKS0_
FNDA:0,_ZNSt6vectorIS_IiSaIiEESaIS1_EED2Ev
FNDA:0,_ZNSt6vectorIiSaIiEED2Ev
FNDA:0,_ZNKSt6vectorIiSaIiEE5beginEv
FNDA:0,_ZNKSt6vectorIS_IiSaIiEESaIS1_EE5beginEv
FNDA:0,_ZNKSt6vectorIiSaIiEE3endEv
FNDA:0,_ZNKSt6vectorIS_IiSaIiEESaIS1_EE3endEv
FNDA:0,_ZNKSt6vectorIiSaIiEE4sizeEv
FNDA:0,_ZNKSt6vectorIS_IiSaIiEESaIS1_EE4sizeEv
FNDA:0,_ZNSt6vectorIS_IiSaIiEESaIS1_EE19_M_range_initializeIPKS1_EEvT_S7_St20forward_iterator_tag
FNDA:0,_ZNSt6vectorIiSaIiEE19_M_range_initializeIPKiEEvT_S5_St20forward_iterator_tag
FNDA:0,_ZSteqIiSaIiEEbRKSt6vectorIT_T0_ES6_
FNDA:0,_ZSteqISt6vectorIiSaIiEESaIS2_EEbRKS0_IT_T0_ES8_
FNF:32
FNH:0
DA:81,0
DA:92,0
DA:93,0
DA:94,0
DA:115,0
DA:116,0
DA:119,0
DA:120,0
DA:129,0
DA:130,0
DA:136,0
DA:137,0
DA:138,0
DA:161,0
DA:162,0
DA:163,0
DA:169,0
DA:172,0
DA:176,0
DA:179,0
DA:180,0
DA:181,0
DA:185,0
DA:187,0
DA:188,0
DA:189,0
DA:190,0
DA:326,0
DA:328,0
DA:330,0
DA:331,0
DA:333,0
DA:334,0
DA:383,0
DA:385,0
DA:387,0
DA:389,0
DA:433,0
DA:434,0
DA:435,0
DA:572,0
DA:573,0
DA:590,0
DA:591,0
DA:670,0
DA:671,0
DA:1324,0
DA:1327,0
DA:1328,0
DA:1329,0
DA:1330,0
DA:1331,0
DA:1333,0
DA:1334,0
DA:1601,0
DA:1602,0
DA:1603,0
LF:57
LH:0
end_of_record
SF:/usr/include/c++/7/ext/alloc_traits.h
FN:94,_ZN9__gnu_cxx14__alloc_traitsISaIiEE17_S_select_on_copyERKS1_
FNDA:0,_ZN9__gnu_cxx14__alloc_traitsISaIiEE17_S_select_on_copyERKS1_
FNF:1
FNH:0
DA:94,0
DA:95,0
LF:2
LH:0
end_of_record
SF:/usr/include/c++/7/ext/new_allocator.h
FN:79,_ZN9__gnu_cxx13new_allocatorISt6vectorIiSaIiEEEC2Ev
FN:79,_ZN9__gnu_cxx13new_allocatorIiEC2Ev
FN:81,_ZN9__gnu_cxx13new_allocatorIiEC2ERKS1_
FN:81,_ZN9__gnu_cxx13new_allocatorISt6vectorIiSaIiEEEC2ERKS4_
FN:86,_ZN9__gnu_cxx13new_allocatorISt6vectorIiSaIiEEED2Ev
FN:86,_ZN9__gnu_cxx13new_allocatorIiED2Ev
FN:99,_ZN9__gnu_cxx13new_allocatorISt6vectorIiSaIiEEE8allocateEmPKv
FN:99,_ZN9__gnu_cxx13new_allocatorIiE8allocateEmPKv
FN:116,_ZN9__gnu_cxx13new_allocatorISt6vectorIiSaIiEEE10deallocateEPS3_m
FN:116,_ZN9__gnu_cxx13new_allocatorIiE10deallocateEPim
FN:129,_ZNK9__gnu_cxx13new_allocatorIiE8max_sizeEv
FN:129,_ZNK9__gnu_cxx13new_allocatorISt6vectorIiSaIiEEE8max_sizeEv
FNDA:0,_ZN9__gnu_cxx13new_allocatorISt6vectorIiSaIiEEEC2Ev
FNDA:0,_ZN9__gnu_cxx13new_allocatorIiEC2Ev
FNDA:0,_ZN9__gnu_cxx13new_allocatorISt6vectorIiSaIiEEEC2ERKS4_
FNDA:0,_ZN9__gnu_cxx13new_allocatorIiEC2ERKS1_
FNDA:0,_ZN9__gnu_cxx13new_allocatorISt6vectorIiSaIiEEED2Ev
FNDA:0,_ZN9__gnu_cxx13new_allocatorIiED2Ev
FNDA:0,_ZN9__gnu_cxx13new_allocatorISt6vectorIiSaIiEEE8allocateEmPKv
FNDA:0,_ZN9__gnu_cxx13new_allocatorIiE8allocateEmPKv
FNDA:0,_ZN9__gnu_cxx13new_allocatorISt6vectorIiSaIiEEE10deallocateEPS3_m
FNDA:0,_ZN9__gnu_cxx13new_allocatorIiE10deallocateEPim
FNDA:0,_ZNK9__gnu_cxx13new_allocatorISt6vectorIiSaIiEEE8max_sizeEv
FNDA:0,_ZNK9__gnu_cxx13new_allocatorIiE8max_sizeEv
FNF:12
FNH:0
DA:79,0
DA:81,0
DA:86,0
DA:99,0
DA:101,0
DA:102,0
DA:111,0
DA:116,0
DA:125,0
DA:126,0
DA:129,0
DA:130,0
LF:12
LH:0
end_of_record
SF:/usr/include/c++/7/initializer_list
FN:71,_ZNKSt16initializer_listISt6vectorIiSaIiEEE4sizeEv
FN:71,_ZNKSt16initializer_listIiE4sizeEv
FN:75,_ZNKSt16initializer_listIiE5beginEv
FN:75,_ZNKSt16initializer_listISt6vectorIiSaIiEEE5beginEv
FN:79,_ZNKSt16initializer_listISt6vectorIiSaIiEEE3endEv
FN:79,_ZNKSt16initializer_listIiE3endEv
FNDA:0,_ZNKSt16initializer_listISt6vectorIiSaIiEEE4sizeEv
FNDA:0,_ZNKSt16initializer_listIiE4sizeEv
FNDA:0,_ZNKSt16initializer_listISt6vectorIiSaIiEEE5beginEv
FNDA:0,_ZNKSt16initializer_listIiE5beginEv
FNDA:0,_ZNKSt16initializer_listISt6vectorIiSaIiEEE3endEv
FNDA:0,_ZNKSt16initializer_listIiE3endEv
FNF:6
FNH:0
DA:71,0
DA:75,0
DA:79,0
LF:3
LH:0
end_of_record
SF:/usr/include/c++/7/iostream
DA:74,6
LF:1
LH:1
end_of_record
SF:/usr/include/c++/7/new
FN:168,_ZnwmPv
FN:174,_ZdlPvS_
FNDA:0,_ZnwmPv
FNDA:0,_ZdlPvS_
FNF:2
FNH:0
DA:168,0
DA:169,0
DA:174,0
LF:3
LH:0
end_of_record
TN:
SF:/home/msaied/Documents/TPI-morfologia-matematica/lib/googletest-master/googletest/include/gtest/gtest-message.h
FN:85,_ZN7testing7MessageD2Ev
FNDA:655,_ZN7testing7MessageD2Ev
FNF:1
FNH:1
DA:85,655
LF:1
LH:1
end_of_record
SF:/home/msaied/Documents/TPI-morfologia-matematica/lib/googletest-master/googletest/include/gtest/gtest.h
FN:268,_ZN7testing15AssertionResultD2Ev
FN:286,_ZN7testing15AssertionResultC2IbEERKT_PNS_8internal8EnableIfIXntsrNS5_21ImplicitlyConvertibleIS2_S0_EE5valueEE4typeE
FN:304,_ZNK7testing15AssertionResultcvbEv
FN:414,_ZN7testing4Test13SetUpTestCaseEv
FN:422,_ZN7testing4Test16TearDownTestCaseEv
FN:499,_ZN7testing4Test5SetupEv
FNDA:301,_ZN7testing15AssertionResultD2Ev
FNDA:301,_ZN7testing15AssertionResultC2IbEERKT_PNS_8internal8EnableIfIXntsrNS5_21ImplicitlyConvertibleIS2_S0_EE5valueEE4typeE
FNDA:301,_ZNK7testing15AssertionResultcvbEv
FNDA:36,_ZN7testing4Test13SetUpTestCaseEv
FNDA:36,_ZN7testing4Test16TearDownTestCaseEv
FNDA:0,_ZN7testing4Test5SetupEv
FNF:6
FNH:5
DA:268,301
DA:286,301
DA:291,301
DA:304,301
DA:414,36
DA:422,36
DA:499,0
LF:7
LH:6
end_of_record
SF:/home/msaied/Documents/TPI-morfologia-matematica/lib/googletest-master/googletest/include/gtest/internal/gtest-internal.h
FN:448,_ZN7testing8internal15TestFactoryBaseD0Ev
FN:448,_ZN7testing8internal15TestFactoryBaseD2Ev
FN:455,_ZN7testing8internal15TestFactoryBaseC2Ev
FN:464,_ZN7testing8internal15TestFactoryImplI50esImagenValidaTest_ImagenDeUnElementoEsValida_TestED2Ev
FN:464,_ZN7testing8internal15TestFactoryImplI48esImagenValidaTest_ImagenNoCuadradaEsValida_TestED2Ev
FN:464,_ZN7testing8internal15TestFactoryImplI70esImagenValidaTest_ImagenConMuchosElementoDistintoDe0o1EsInvalida_TestED0Ev
FN:464,_ZN7testing8internal15TestFactoryImplI68esImagenValidaTest_ImagenDeDosFilasDeDiferenteTamanioEsInvalida_TestED0Ev
FN:464,_ZN7testing8internal15TestFactoryImplI48esImagenValidaTest_ImagenNoCuadradaEsValida_TestEC2Ev
FN:464,_ZN7testing8internal15TestFactoryImplI70esImagenValidaTest_ImagenConMuchosElementoDistintoDe0o1EsInvalida_TestED2Ev
FN:464,_ZN7testing8internal15TestFactoryImplI50esImagenValidaTest_ImagenDeUnElementoEsValida_TestED0Ev
FN:464,_ZN7testing8internal15TestFactoryImplI50esImagenValidaTest_ImagenDeUnElementoEsValida_TestEC2Ev
FN:464,_ZN7testing8internal15TestFactoryImplI48esImagenValidaTest_ImagenNoCuadradaEsValida_TestED0Ev
FN:464,_ZN7testing8internal15TestFactoryImplI45esImagenValidaTest_ImagenVaciaNoEsValida_TestEC2Ev
FN:464,_ZN7testing8internal15TestFactoryImplI68esImagenValidaTest_ImagenDeDosFilasDeDiferenteTamanioEsInvalida_TestED2Ev
FN:464,_ZN7testing8internal15TestFactoryImplI70esImagenValidaTest_ImagenConMuchosElementoDistintoDe0o1EsInvalida_TestEC2Ev
FN:464,_ZN7testing8internal15TestFactoryImplI68esImagenValidaTest_ImagenDeDosFilasDeDiferenteTamanioEsInvalida_TestEC2Ev
FN:464,_ZN7testing8internal15TestFactoryImplI45esImagenValidaTest_ImagenVaciaNoEsValida_TestED2Ev
FN:464,_ZN7testing8internal15TestFactoryImplI45esImagenValidaTest_ImagenVaciaNoEsValida_TestED0Ev
FN:466,_ZN7testing8internal15TestFactoryImplI68esImagenValidaTest_ImagenDeDosFilasDeDiferenteTamanioEsInvalida_TestE10CreateTestEv
FN:466,_ZN7testing8internal15TestFactoryImplI45esImagenValidaTest_ImagenVaciaNoEsValida_TestE10CreateTestEv
FN:466,_ZN7testing8internal15TestFactoryImplI70esImagenValidaTest_ImagenConMuchosElementoDistintoDe0o1EsInvalida_TestE10CreateTestEv
FN:466,_ZN7testing8internal15TestFactoryImplI50esImagenValidaTest_ImagenDeUnElementoEsValida_TestE10CreateTestEv
FN:466,_ZN7testing8internal15TestFactoryImplI48esImagenValidaTest_ImagenNoCuadradaEsValida_TestE10CreateTestEv
FN:486,_ZN7testing8internal12CodeLocationD2Ev
FN:487,_ZN7testing8internal12CodeLocationC2ERKNSt7__cxx1112basic_stringIcSt11char_traitsIcESaIcEEEi
FNDA:0,_ZN7testing8internal15TestFactoryBaseD0Ev
FNDA:301,_ZN7testing8internal15TestFactoryBaseD2Ev
FNDA:301,_ZN7testing8internal15TestFactoryBaseC2Ev
FNDA:6,_ZN7testing8internal15TestFactoryImplI45esImagenValidaTest_ImagenVaciaNoEsValida_TestED0Ev
FNDA:6,_ZN7testing8internal15TestFactoryImplI45esImagenValidaTest_ImagenVaciaNoEsValida_TestED2Ev
FNDA:6,_ZN7testing8internal15TestFactoryImplI50esImagenValidaTest_ImagenDeUnElementoEsValida_TestED0Ev
FNDA:6,_ZN7testing8internal15TestFactoryImplI50esImagenValidaTest_ImagenDeUnElementoEsValida_TestED2Ev
FNDA:6,_ZN7testing8internal15TestFactoryImplI68esImagenValidaTest_ImagenDeDosFilasDeDiferenteTamanioEsInvalida_TestED0Ev
FNDA:6,_ZN7testing8internal15TestFactoryImplI68esImagenValidaTest_ImagenDeDosFilasDeDiferenteTamanioEsInvalida_TestED2Ev
FNDA:6,_ZN7testing8internal15TestFactoryImplI70esImagenValidaTest_ImagenConMuchosElementoDistintoDe0o1EsInvalida_TestED0Ev
FNDA:6,_ZN7testing8internal15TestFactoryImplI70esImagenValidaTest_ImagenConMuchosElementoDistintoDe0o1EsInvalida_TestED2Ev
FNDA:6,_ZN7testing8internal15TestFactoryImplI48esImagenValidaTest_ImagenNoCuadradaEsValida_TestED0Ev
FNDA:6,_ZN7testing8internal15TestFactoryImplI48esImagenValidaTest_ImagenNoCuadradaEsValida_TestED2Ev
FNDA:6,_ZN7testing8internal15TestFactoryImplI48esImagenValidaTest_ImagenNoCuadradaEsValida_TestEC2Ev
FNDA:6,_ZN7testing8internal15TestFactoryImplI70esImagenValidaTest_ImagenConMuchosElementoDistintoDe0o1EsInvalida_TestEC2Ev
FNDA:6,_ZN7testing8internal15TestFactoryImplI68esImagenValidaTest_ImagenDeDosFilasDeDiferenteTamanioEsInvalida_TestEC2Ev
FNDA:6,_ZN7testing8internal15TestFactoryImplI50esImagenValidaTest_ImagenDeUnElementoEsValida_TestEC2Ev
FNDA:6,_ZN7testing8internal15TestFactoryImplI45esImagenValidaTest_ImagenVaciaNoEsValida_TestEC2Ev
FNDA:6,_ZN7testing8internal15TestFactoryImplI45esImagenValidaTest_ImagenVaciaNoEsValida_TestE10CreateTestEv
FNDA:6,_ZN7testing8internal15TestFactoryImplI50esImagenValidaTest_ImagenDeUnElementoEsValida_TestE10CreateTestEv
FNDA:6,_ZN7testing8internal15TestFactoryImplI68esImagenValidaTest_ImagenDeDosFilasDeDiferenteTamanioEsInvalida_TestE10CreateTestEv
FNDA:6,_ZN7testing8internal15TestFactoryImplI70esImagenValidaTest_ImagenConMuchosElementoDistintoDe0o1EsInvalida_TestE10CreateTestEv
FNDA:6,_ZN7testing8internal15TestFactoryImplI48esImagenValidaTest_ImagenNoCuadradaEsValida_TestE10CreateTestEv
FNDA:903,_ZN7testing8internal12CodeLocationD2Ev
FNDA:301,_ZN7testing8internal12CodeLocationC2ERKNSt7__cxx1112basic_stringIcSt11char_traitsIcESaIcEEEi
FNF:25
FNH:24
DA:448,301
DA:455,301
DA:464,90
DA:466,30
DA:486,903
DA:487,301
DA:488,301
LF:7
LH:7
end_of_record
SF:/home/msaied/Documents/TPI-morfologia-matematica/lib/googletest-master/googletest/include/gtest/internal/gtest-port.h
FN:1184,_ZN7testing8internal10scoped_ptrINSt7__cxx1112basic_stringIcSt11char_traitsIcESaIcEEEEC2EPS7_
FN:1185,_ZN7testing8internal10scoped_ptrINSt7__cxx1118basic_stringstreamIcSt11char_traitsIcESaIcEEEED2Ev
FN:1185,_ZN7testing8internal10scoped_ptrINSt7__cxx1112basic_stringIcSt11char_traitsIcESaIcEEEED2Ev
FN:1197,_ZN7testing8internal10scoped_ptrINSt7__cxx1118basic_stringstreamIcSt11char_traitsIcESaIcEEEE5resetEPS7_
FN:1197,_ZN7testing8internal10scoped_ptrINSt7__cxx1112basic_stringIcSt11char_traitsIcESaIcEEEE5resetEPS7_
FNDA:301,_ZN7testing8internal10scoped_ptrINSt7__cxx1112basic_stringIcSt11char_traitsIcESaIcEEEEC2EPS7_
FNDA:301,_ZN7testing8internal10scoped_ptrINSt7__cxx1112basic_stringIcSt11char_traitsIcESaIcEEEED2Ev
FNDA:655,_ZN7testing8internal10scoped_ptrINSt7__cxx1118basic_stringstreamIcSt11char_traitsIcESaIcEEEED2Ev
FNDA:655,_ZN7testing8internal10scoped_ptrINSt7__cxx1118basic_stringstreamIcSt11char_traitsIcESaIcEEEE5resetEPS7_
FNDA:301,_ZN7testing8internal10scoped_ptrINSt7__cxx1112basic_stringIcSt11char_traitsIcESaIcEEEE5resetEPS7_
FNF:5
FNH:5
DA:1184,301
DA:1185,956
DA:1197,956
DA:1198,956
DA:1199,655
DA:1200,655
DA:1202,655
DA:1204,956
LF:8
LH:8
end_of_record
SF:/home/msaied/Documents/TPI-morfologia-matematica/tests/ej1TEST.cpp
FN:4,_ZN45esImagenValidaTest_ImagenVaciaNoEsValida_TestD2Ev
FN:4,_ZN45esImagenValidaTest_ImagenVaciaNoEsValida_Test8TestBodyEv
FN:4,_ZN45esImagenValidaTest_ImagenVaciaNoEsValida_TestD0Ev
FN:4,_ZN45esImagenValidaTest_ImagenVaciaNoEsValida_TestC2Ev
FN:9,_ZN50esImagenValidaTest_ImagenDeUnElementoEsValida_Test8TestBodyEv
FN:9,_ZN50esImagenValidaTest_ImagenDeUnElementoEsValida_TestD0Ev
FN:9,_ZN50esImagenValidaTest_ImagenDeUnElementoEsValida_TestD2Ev
FN:9,_ZN50esImagenValidaTest_ImagenDeUnElementoEsValida_TestC2Ev
FN:14,_ZN68esImagenValidaTest_ImagenDeDosFilasDeDiferenteTamanioEsInvalida_TestD0Ev
FN:14,_ZN68esImagenValidaTest_ImagenDeDosFilasDeDiferenteTamanioEsInvalida_TestC2Ev
FN:14,_ZN68esImagenValidaTest_ImagenDeDosFilasDeDiferenteTamanioEsInvalida_Test8TestBodyEv
FN:14,_ZN68esImagenValidaTest_ImagenDeDosFilasDeDiferenteTamanioEsInvalida_TestD2Ev
FN:19,_ZN70esImagenValidaTest_ImagenConMuchosElementoDistintoDe0o1EsInvalida_Test8TestBodyEv
FN:19,_ZN70esImagenValidaTest_ImagenConMuchosElementoDistintoDe0o1EsInvalida_TestD2Ev
FN:19,_ZN70esImagenValidaTest_ImagenConMuchosElementoDistintoDe0o1EsInvalida_TestD0Ev
FN:19,_ZN70esImagenValidaTest_ImagenConMuchosElementoDistintoDe0o1EsInvalida_TestC2Ev
FN:24,_ZN48esImagenValidaTest_ImagenNoCuadradaEsValida_TestD0Ev
FN:24,_ZN48esImagenValidaTest_ImagenNoCuadradaEsValida_Test8TestBodyEv
FN:24,_ZN48esImagenValidaTest_ImagenNoCuadradaEsValida_TestC2Ev
FN:24,_ZN48esImagenValidaTest_ImagenNoCuadradaEsValida_TestD2Ev
FN:34,_Z41__static_initialization_and_destruction_0ii
FN:34,_GLOBAL__sub_I__ZN45esImagenValidaTest_ImagenVaciaNoEsValida_Test10test_info_E
FNDA:6,_ZN45esImagenValidaTest_ImagenVaciaNoEsValida_TestD0Ev
FNDA:6,_ZN45esImagenValidaTest_ImagenVaciaNoEsValida_TestD2Ev
FNDA:6,_ZN45esImagenValidaTest_ImagenVaciaNoEsValida_Test8TestBodyEv
FNDA:6,_ZN45esImagenValidaTest_ImagenVaciaNoEsValida_TestC2Ev
FNDA:6,_ZN50esImagenValidaTest_ImagenDeUnElementoEsValida_TestD0Ev
FNDA:6,_ZN50esImagenValidaTest_ImagenDeUnElementoEsValida_TestD2Ev
FNDA:6,_ZN50esImagenValidaTest_ImagenDeUnElementoEsValida_Test8TestBodyEv
FNDA:6,_ZN50esImagenValidaTest_ImagenDeUnElementoEsValida_TestC2Ev
FNDA:6,_ZN68esImagenValidaTest_ImagenDeDosFilasDeDiferenteTamanioEsInvalida_TestD0Ev
FNDA:6,_ZN68esImagenValidaTest_ImagenDeDosFilasDeDiferenteTamanioEsInvalida_TestD2Ev
FNDA:6,_ZN68esImagenValidaTest_ImagenDeDosFilasDeDiferenteTamanioEsInvalida_Test8TestBodyEv
FNDA:6,_ZN68esImagenValidaTest_ImagenDeDosFilasDeDiferenteTamanioEsInvalida_TestC2Ev
FNDA:6,_ZN70esImagenValidaTest_ImagenConMuchosElementoDistintoDe0o1EsInvalida_TestD0Ev
FNDA:6,_ZN70esImagenValidaTest_ImagenConMuchosElementoDistintoDe0o1EsInvalida_TestD2Ev
FNDA:6,_ZN70esImagenValidaTest_ImagenConMuchosElementoDistintoDe0o1EsInvalida_Test8TestBodyEv
FNDA:6,_ZN70esImagenValidaTest_ImagenConMuchosElementoDistintoDe0o1EsInvalida_TestC2Ev
FNDA:6,_ZN48esImagenValidaTest_ImagenNoCuadradaEsValida_TestD0Ev
FNDA:6,_ZN48esImagenValidaTest_ImagenNoCuadradaEsValida_TestD2Ev
FNDA:6,_ZN48esImagenValidaTest_ImagenNoCuadradaEsValida_Test8TestBodyEv
FNDA:6,_ZN48esImagenValidaTest_ImagenNoCuadradaEsValida_TestC2Ev
FNDA:6,_GLOBAL__sub_I__ZN45esImagenValidaTest_ImagenVaciaNoEsValida_Test10test_info_E
FNDA:6,_Z41__static_initialization_and_destruction_0ii
FNF:22
FNH:22
DA:4,30
DA:5,12
DA:6,6
DA:7,6
DA:9,30
DA:10,12
DA:11,6
DA:12,6
DA:14,30
DA:15,12
DA:16,6
DA:17,6
DA:19,30
DA:20,12
DA:21,6
DA:22,6
DA:24,30
DA:32,12
DA:33,6
DA:34,24
LF:20
LH:20
end_of_record
SF:/usr/include/c++/7/bits/alloc_traits.h
FN:435,_ZNSt16allocator_traitsISaISt6vectorIiSaIiEEEE8allocateERS3_m
FN:435,_ZNSt16allocator_traitsISaIiEE8allocateERS0_m
FN:461,_ZNSt16allocator_traitsISaIiEE10deallocateERS0_Pim
FN:461,_ZNSt16allocator_traitsISaISt6vectorIiSaIiEEEE10deallocateERS3_PS2_m
FN:504,_ZNSt16allocator_traitsISaIiEE37select_on_container_copy_constructionERKS0_
FNDA:0,_ZNSt16allocator_traitsISaIiEE8allocateERS0_m
FNDA:0,_ZNSt16allocator_traitsISaISt6vectorIiSaIiEEEE8allocateERS3_m
FNDA:0,_ZNSt16allocator_traitsISaISt6vectorIiSaIiEEEE10deallocateERS3_PS2_m
FNDA:0,_ZNSt16allocator_traitsISaIiEE10deallocateERS0_Pim
FNDA:0,_ZNSt16allocator_traitsISaIiEE37select_on_container_copy_constructionERKS0_
FNF:5
FNH:0
DA:435,0
DA:436,0
DA:461,0
DA:462,0
DA:504,0
DA:505,0
LF:6
LH:0
end_of_record
SF:/usr/include/c++/7/bits/allocator.h
FN:131,_ZNSaISt6vectorIiSaIiEEEC2Ev
FN:131,_ZNSaIiEC2Ev
FN:133,_ZNSaISt6vectorIiSaIiEEEC2ERKS2_
FN:133,_ZNSaIiEC2ERKS_
FN:139,_ZNSaISt6vectorIiSaIiEEED2Ev
FN:139,_ZNSaIiED2Ev
FNDA:0,_ZNSaIiEC2Ev
FNDA:0,_ZNSaISt6vectorIiSaIiEEEC2Ev
FNDA:0,_ZNSaIiEC2ERKS_
FNDA:0,_ZNSaISt6vectorIiSaIiEEEC2ERKS2_
FNDA:0,_ZNSaIiED2Ev
FNDA:0,_ZNSaISt6vectorIiSaIiEEED2Ev
FNF:6
FNH:0
DA:131,0
DA:133,0
DA:134,0
DA:139,0
LF:4
LH:0
end_of_record
SF:/usr/include/c++/7/bits/cpp_type_traits.h
FN:408,_ZSt12__miter_baseIN9__gnu_cxx17__normal_iteratorIPKiSt6vectorIiSaIiEEEEET_S8_
FN:408,_ZSt12__miter_baseIPKiET_S2_
FNDA:0,_ZSt12__miter_baseIN9__gnu_cxx17__normal_iteratorIPKiSt6vectorIiSaIiEEEEET_S8_
FNDA:0,_ZSt12__miter_baseIPKiET_S2_
FNF:2
FNH:0
DA:408,0
DA:409,0
LF:2
LH:0
end_of_record
SF:/usr/include/c++/7/bits/move.h
FN:47,_ZSt11__addressofISt6vectorIiSaIiEEEPT_RS3_
FN:73,_ZSt7forwardIRKSt6vectorIiSaIiEEEOT_RNSt16remove_referenceIS5_E4typeE
FNDA:0,_ZSt11__addressofISt6vectorIiSaIiEEEPT_RS3_
FNDA:0,_ZSt7forwardIRKSt6vectorIiSaIiEEEOT_RNSt16remove_referenceIS5_E4typeE
FNF:2
FNH:0
DA:47,0
DA:48,0
DA:73,0
DA:74,0
LF:4
LH:0
end_of_record
SF:/usr/include/c++/7/bits/stl_algobase.h
FN:277,_ZSt12__niter_baseIPKiET_S2_
FN:277,_ZSt12__niter_baseIPiET_S1_
FN:357,_ZNSt11__copy_moveILb0ELb1ESt26random_access_iterator_tagE8__copy_mIiEEPT_PKS3_S6_S4_
FN:375,_ZSt13__copy_move_aILb0EPKiPiET1_T0_S4_S3_
FN:420,_ZSt14__copy_move_a2ILb0EN9__gnu_cxx17__normal_iteratorIPKiSt6vectorIiSaIiEEEEPiET1_T0_SA_S9_
FN:420,_ZSt14__copy_move_a2ILb0EPKiPiET1_T0_S4_S3_
FN:446,_ZSt4copyIPKiPiET0_T_S4_S3_
FN:446,_ZSt4copyIN9__gnu_cxx17__normal_iteratorIPKiSt6vectorIiSaIiEEEEPiET0_T_SA_S9_
FNDA:0,_ZSt12__niter_baseIPiET_S1_
FNDA:0,_ZSt12__niter_baseIPKiET_S2_
FNDA:0,_ZNSt11__copy_moveILb0ELb1ESt26random_access_iterator_tagE8__copy_mIiEEPT_PKS3_S6_S4_
FNDA:0,_ZSt13__copy_move_aILb0EPKiPiET1_T0_S4_S3_
FNDA:0,_ZSt14__copy_move_a2ILb0EN9__gnu_cxx17__normal_iteratorIPKiSt6vectorIiSaIiEEEEPiET1_T0_SA_S9_
FNDA:0,_ZSt14__copy_move_a2ILb0EPKiPiET1_T0_S4_S3_
FNDA:0,_ZSt4copyIN9__gnu_cxx17__normal_iteratorIPKiSt6vectorIiSaIiEEEEPiET0_T_SA_S9_
FNDA:0,_ZSt4copyIPKiPiET0_T_S4_S3_
FNF:8
FNH:0
DA:277,0
DA:278,0
DA:357,0
DA:366,0
DA:367,0
DA:368,0
DA:369,0
DA:375,0
DA:380,0
DA:386,0
DA:420,0
DA:422,0
DA:424,0
DA:446,0
DA:455,0
DA:456,0
LF:16
LH:0
end_of_record
SF:/usr/include/c++/7/bits/stl_construct.h
FN:74,_ZSt10_ConstructISt6vectorIiSaIiEEJRKS2_EEvPT_DpOT0_
FN:97,_ZSt8_DestroyISt6vectorIiSaIiEEEvPT_
FN:105,_ZNSt12_Destroy_auxILb0EE9__destroyIPSt6vectorIiSaIiEEEEvT_S6_
FN:117,_ZNSt12_Destroy_auxILb1EE9__destroyIPiEEvT_S3_
FN:127,_ZSt8_DestroyIPiEvT_S1_
FN:127,_ZSt8_DestroyIPSt6vectorIiSaIiEEEvT_S4_
FN:203,_ZSt8_DestroyIPiiEvT_S1_RSaIT0_E
FN:203,_ZSt8_DestroyIPSt6vectorIiSaIiEES2_EvT_S4_RSaIT0_E
FNDA:0,_ZSt10_ConstructISt6vectorIiSaIiEEJRKS2_EEvPT_DpOT0_
FNDA:0,_ZSt8_DestroyISt6vectorIiSaIiEEEvPT_
FNDA:0,_ZNSt12_Destroy_auxILb0EE9__destroyIPSt6vectorIiSaIiEEEEvT_S6_
FNDA:0,_ZNSt12_Destroy_auxILb1EE9__destroyIPiEEvT_S3_
FNDA:0,_ZSt8_DestroyIPSt6vectorIiSaIiEEEvT_S4_
FNDA:0,_ZSt8_DestroyIPiEvT_S1_
FNDA:0,_ZSt8_DestroyIPSt6vectorIiSaIiEES2_EvT_S4_RSaIT0_E
FNDA:0,_ZSt8_DestroyIPiiEvT_S1_RSaIT0_E
FNF:8
FNH:0
DA:74,0
DA:75,0
DA:97,0
DA:98,0
DA:105,0
DA:107,0
DA:108,0
DA:109,0
DA:117,0
DA:127,0
DA:137,0
DA:138,0
DA:203,0
DA:206,0
DA:207,0
LF:15
LH:0
end_of_record
SF:/usr/include/c++/7/bits/stl_iterator.h
FN:782,_ZN9__gnu_cxx17__normal_iteratorIPKiSt6vectorIiSaIiEEEC2ERKS2_
FN:847,_ZNK9__gnu_cxx17__normal_iteratorIPKiSt6vectorIiSaIiEEE4baseEv
FN:986,_ZSt12__niter_baseIPKiSt6vectorIiSaIiEEET_N9__gnu_cxx17__normal_iteratorIS5_T0_EE
FNDA:0,_ZN9__gnu_cxx17__normal_iteratorIPKiSt6vectorIiSaIiEEEC2ERKS2_
FNDA:0,_ZNK9__gnu_cxx17__normal_iteratorIPKiSt6vectorIiSaIiEEE4baseEv
FNDA:0,_ZSt12__niter_baseIPKiSt6vectorIiSaIiEEET_N9__gnu_cxx17__normal_iteratorIS5_T0_EE
FNF:3
FNH:0
DA:782,0
DA:783,0
DA:847,0
DA:848,0
DA:986,0
DA:987,0
LF:6
LH:0
end_of_record
SF:/usr/include/c++/7/bits/stl_iterator_base_funcs.h
FN:98,_ZSt10__distanceIPKSt6vectorIiSaIiEEENSt15iterator_traitsIT_E15difference_typeES6_S6_St26random_access_iterator_tag
FN:98,_ZSt10__distanceIPKiENSt15iterator_traitsIT_E15difference_typeES3_S3_St26random_access_iterator_tag
FN:138,_ZSt8distanceIPKiENSt15iterator_traitsIT_E15difference_typeES3_S3_
FN:138,_ZSt8distanceIPKSt6vectorIiSaIiEEENSt15iterator_traitsIT_E15difference_typeES6_S6_
FNDA:0,_ZSt10__distanceIPKiENSt15iterator_traitsIT_E15difference_typeES3_S3_St26random_access_iterator_tag
FNDA:0,_ZSt10__distanceIPKSt6vectorIiSaIiEEENSt15iterator_traitsIT_E15difference_typeES6_S6_St26random_access_iterator_tag
FNDA:0,_ZSt8distanceIPKiENSt15iterator_traitsIT_E15difference_typeES3_S3_
FNDA:0,_ZSt8distanceIPKSt6vectorIiSaIiEEENSt15iterator_traitsIT_E15difference_typeES6_S6_
FNF:4
FNH:0
DA:98,0
DA:104,0
DA:138,0
DA:141,0
DA:142,0
LF:5
LH:0
end_of_record
SF:/usr/include/c++/7/bits/stl_iterator_base_types.h
FN:205,_ZSt19__iterator_categoryIPKiENSt15iterator_traitsIT_E17iterator_categoryERKS3_
FN:205,_ZSt19__iterator_categoryIPKSt6vectorIiSaIiEEENSt15iterator_traitsIT_E17iterator_categoryERKS6_
FNDA:0,_ZSt19__iterator_categoryIPKiENSt15iterator_traitsIT_E17iterator_categoryERKS3_
FNDA:0,_ZSt19__iterator_categoryIPKSt6vectorIiSaIiEEENSt15iterator_traitsIT_E17iterator_categoryERKS6_
FNF:2
FNH:0
DA:205,0
DA:206,0
LF:2
LH:0
end_of_record
SF:/usr/include/c++/7/bits/stl_uninitialized.h
FN:76,_ZNSt20__uninitialized_copyILb0EE13__uninit_copyIPKSt6vectorIiSaIiEEPS4_EET0_T_S9_S8_
FN:99,_ZNSt20__uninitialized_copyILb1EE13__uninit_copyIN9__gnu_cxx17__normal_iteratorIPKiSt6vectorIiSaIiEEEEPiEET0_T_SC_SB_
FN:99,_ZNSt20__uninitialized_copyILb1EE13__uninit_copyIPKiPiEET0_T_S6_S5_
FN:115,_ZSt18uninitialized_copyIPKiPiET0_T_S4_S3_
FN:115,_ZSt18uninitialized_copyIPKSt6vectorIiSaIiEEPS2_ET0_T_S7_S6_
FN:115,_ZSt18uninitialized_copyIN9__gnu_cxx17__normal_iteratorIPKiSt6vectorIiSaIiEEEEPiET0_T_SA_S9_
FN:287,_ZSt22__uninitialized_copy_aIN9__gnu_cxx17__normal_iteratorIPKiSt6vectorIiSaIiEEEEPiiET0_T_SA_S9_RSaIT1_E
FN:287,_ZSt22__uninitialized_copy_aIPKSt6vectorIiSaIiEEPS2_S2_ET0_T_S7_S6_RSaIT1_E
FN:287,_ZSt22__uninitialized_copy_aIPKiPiiET0_T_S4_S3_RSaIT1_E
FNDA:0,_ZNSt20__uninitialized_copyILb0EE13__uninit_copyIPKSt6vectorIiSaIiEEPS4_EET0_T_S9_S8_
FNDA:0,_ZNSt20__uninitialized_copyILb1EE13__uninit_copyIN9__gnu_cxx17__normal_iteratorIPKiSt6vectorIiSaIiEEEEPiEET0_T_SC_SB_
FNDA:0,_ZNSt20__uninitialized_copyILb1EE13__uninit_copyIPKiPiEET0_T_S6_S5_
FNDA:0,_ZSt18uninitialized_copyIN9__gnu_cxx17__normal_iteratorIPKiSt6vectorIiSaIiEEEEPiET0_T_SA_S9_
FNDA:0,_ZSt18uninitialized_copyIPKiPiET0_T_S4_S3_
FNDA:0,_ZSt18uninitialized_copyIPKSt6vectorIiSaIiEEPS2_ET0_T_S7_S6_
FNDA:0,_ZSt22__uninitialized_copy_aIN9__gnu_cxx17__normal_iteratorIPKiSt6vectorIiSaIiEEEEPiiET0_T_SA_S9_RSaIT1_E
FNDA:0,_ZSt22__uninitialized_copy_aIPKiPiiET0_T_S4_S3_RSaIT1_E
FNDA:0,_ZSt22__uninitialized_copy_aIPKSt6vectorIiSaIiEEPS2_S2_ET0_T_S7_S6_RSaIT1_E
FNF:9
FNH:0
DA:76,0
DA:79,0
DA:82,0
DA:83,0
DA:84,0
DA:86,0
DA:88,0
DA:89,0
DA:99,0
DA:101,0
DA:115,0
DA:128,0
DA:134,0
DA:287,0
DA:289,0
LF:15
LH:0
end_of_record
SF:/usr/include/c++/7/bits/stl_vector.h
FN:81,_ZNSt12_Vector_baseIiSaIiEE12_Vector_implD2Ev
FN:81,_ZNSt12_Vector_baseISt6vectorIiSaIiEESaIS2_EE12_Vector_implD2Ev
FN:88,_ZNSt12_Vector_baseIiSaIiEE12_Vector_implC2Ev
FN:92,_ZNSt12_Vector_baseISt6vectorIiSaIiEESaIS2_EE12_Vector_implC2ERKS3_
FN:92,_ZNSt12_Vector_baseIiSaIiEE12_Vector_implC2ERKS0_
FN:115,_ZNSt12_Vector_baseIiSaIiEE19_M_get_Tp_allocatorEv
FN:115,_ZNSt12_Vector_baseISt6vectorIiSaIiEESaIS2_EE19_M_get_Tp_allocatorEv
FN:119,_ZNKSt12_Vector_baseIiSaIiEE19_M_get_Tp_allocatorEv
FN:126,_ZNSt12_Vector_baseIiSaIiEEC2Ev
FN:129,_ZNSt12_Vector_baseIiSaIiEEC2ERKS0_
FN:129,_ZNSt12_Vector_baseISt6vectorIiSaIiEESaIS2_EEC2ERKS3_
FN:136,_ZNSt12_Vector_baseIiSaIiEEC2EmRKS0_
FN:161,_ZNSt12_Vector_baseISt6vectorIiSaIiEESaIS2_EED2Ev
FN:161,_ZNSt12_Vector_baseIiSaIiEED2Ev
FN:169,_ZNSt12_Vector_baseISt6vectorIiSaIiEESaIS2_EE11_M_allocateEm
FN:169,_ZNSt12_Vector_baseIiSaIiEE11_M_allocateEm
FN:176,_ZNSt12_Vector_baseISt6vectorIiSaIiEESaIS2_EE13_M_deallocateEPS2_m
FN:176,_ZNSt12_Vector_baseIiSaIiEE13_M_deallocateEPim
FN:185,_ZNSt12_Vector_baseIiSaIiEE17_M_create_storageEm
FN:259,_ZNSt6vectorIiSaIiEEC2Ev
FN:326,_ZNSt6vectorIiSaIiEEC2ERKS1_
FN:383,_ZNSt6vectorIS_IiSaIiEESaIS1_EEC2ESt16initializer_listIS1_ERKS2_
FN:383,_ZNSt6vectorIiSaIiEEC2ESt16initializer_listIiERKS0_
FN:433,_ZNSt6vectorIiSaIiEED2Ev
FN:433,_ZNSt6vectorIS_IiSaIiEESaIS1_EED2Ev
FN:572,_ZNKSt6vectorIiSaIiEE5beginEv
FN:590,_ZNKSt6vectorIiSaIiEE3endEv
FN:670,_ZNKSt6vectorIiSaIiEE4sizeEv
FN:1324,_ZNSt6vectorIS_IiSaIiEESaIS1_EE19_M_range_initializeIPKS1_EEvT_S7_St20forward_iterator_tag
FN:1324,_ZNSt6vectorIiSaIiEE19_M_range_initializeIPKiEEvT_S5_St20forward_iterator_tag
FNDA:0,_ZNSt12_Vector_baseISt6vectorIiSaIiEESaIS2_EE12_Vector_implD2Ev
FNDA:0,_ZNSt12_Vector_baseIiSaIiEE12_Vector_implD2Ev
FNDA:48,_ZNSt12_Vector_baseIiSaIiEE12_Vector_implC2Ev
FNDA:0,_ZNSt12_Vector_baseIiSaIiEE12_Vector_implC2ERKS0_
FNDA:0,_ZNSt12_Vector_baseISt6vectorIiSaIiEESaIS2_EE12_Vector_implC2ERKS3_
FNDA:0,_ZNSt12_Vector_baseISt6vectorIiSaIiEESaIS2_EE19_M_get_Tp_allocatorEv
FNDA:0,_ZNSt12_Vector_baseIiSaIiEE19_M_get_Tp_allocatorEv
FNDA:0,_ZNKSt12_Vector_baseIiSaIiEE19_M_get_Tp_allocatorEv
FNDA:48,_ZNSt12_Vector_baseIiSaIiEEC2Ev
FNDA:0,_ZNSt12_Vector_baseIiSaIiEEC2ERKS0_
FNDA:0,_ZNSt12_Vector_baseISt6vectorIiSaIiEESaIS2_EEC2ERKS3_
FNDA:0,_ZNSt12_Vector_baseIiSaIiEEC2EmRKS0_
FNDA:0,_ZNSt12_Vector_baseISt6vectorIiSaIiEESaIS2_EED2Ev
FNDA:0,_ZNSt12_Vector_baseIiSaIiEED2Ev
FNDA:0,_ZNSt12_Vector_baseIiSaIiEE11_M_allocateEm
FNDA:0,_ZNSt12_Vector_baseISt6vectorIiSaIiEESaIS2_EE11_M_allocateEm
FNDA:0,_ZNSt12_Vector_baseISt6vectorIiSaIiEESaIS2_EE13_M_deallocateEPS2_m
FNDA:0,_ZNSt12_Vector_baseIiSaIiEE13_M_deallocateEPim
FNDA:0,_ZNSt12_Vector_baseIiSaIiEE17_M_create_storageEm
FNDA:48,_ZNSt6vectorIiSaIiEEC2Ev
FNDA:0,_ZNSt6vectorIiSaIiEEC2ERKS1_
FNDA:0,_ZNSt6vectorIiSaIiEEC2ESt16initializer_listIiERKS0_
FNDA:0,_ZNSt6vectorIS_IiSaIiEESaIS1_EEC2ESt16initializer_listIS1_ERKS2_
FNDA:0,_ZNSt6vectorIS_IiSaIiEESaIS1_EED2Ev
FNDA:0,_ZNSt6vectorIiSaIiEED2Ev
FNDA:0,_ZNKSt6vectorIiSaIiEE5beginEv
FNDA:0,_ZNKSt6vectorIiSaIiEE3endEv
FNDA:0,_ZNKSt6vectorIiSaIiEE4sizeEv
FNDA:0,_ZNSt6vectorIiSaIiEE19_M_range_initializeIPKiEEvT_S5_St20forward_iterator_tag
FNDA:0,_ZNSt6vectorIS_IiSaIiEESaIS1_EE19_M_range_initializeIPKS1_EEvT_S7_St20forward_iterator_tag
FNF:30
FNH:3
DA:81,0
DA:88,48
DA:89,48
DA:90,48
DA:92,0
DA:93,0
DA:94,0
DA:115,0
DA:116,0
DA:119,0
DA:120,0
DA:126,48
DA:127,48
DA:129,0
DA:130,0
DA:136,0
DA:137,0
DA:138,0
DA:161,0
DA:162,0
DA:163,0
DA:169,0
DA:172,0
DA:176,0
DA:179,0
DA:180,0
DA:181,0
DA:185,0
DA:187,0
DA:188,0
DA:189,0
DA:190,0
DA:259,48
DA:263,48
DA:326,0
DA:328,0
DA:330,0
DA:331,0
DA:333,0
DA:334,0
DA:383,0
DA:385,0
DA:387,0
DA:389,0
DA:433,0
DA:434,0
DA:435,0
DA:572,0
DA:573,0
DA:590,0
DA:591,0
DA:670,0
DA:671,0
DA:1324,0
DA:1327,0
DA:1328,0
DA:1329,0
DA:1330,0
DA:1331,0
DA:1333,0
DA:1334,0
LF:61
LH:7
end_of_record
SF:/usr/include/c++/7/ext/alloc_traits.h
FN:94,_ZN9__gnu_cxx14__alloc_traitsISaIiEE17_S_select_on_copyERKS1_
FNDA:0,_ZN9__gnu_cxx14__alloc_traitsISaIiEE17_S_select_on_copyERKS1_
FNF:1
FNH:0
DA:94,0
DA:95,0
LF:2
LH:0
end_of_record
SF:/usr/include/c++/7/ext/new_allocator.h
FN:79,_ZN9__gnu_cxx13new_allocatorIiEC2Ev
FN:79,_ZN9__gnu_cxx13new_allocatorISt6vectorIiSaIiEEEC2Ev
FN:81,_ZN9__gnu_cxx13new_allocatorISt6vectorIiSaIiEEEC2ERKS4_
FN:81,_ZN9__gnu_cxx13new_allocatorIiEC2ERKS1_
FN:86,_ZN9__gnu_cxx13new_allocatorIiED2Ev
FN:86,_ZN9__gnu_cxx13new_allocatorISt6vectorIiSaIiEEED2Ev
FN:99,_ZN9__gnu_cxx13new_allocatorIiE8allocateEmPKv
FN:99,_ZN9__gnu_cxx13new_allocatorISt6vectorIiSaIiEEE8allocateEmPKv
FN:116,_ZN9__gnu_cxx13new_allocatorIiE10deallocateEPim
FN:116,_ZN9__gnu_cxx13new_allocatorISt6vectorIiSaIiEEE10deallocateEPS3_m
FN:129,_ZNK9__gnu_cxx13new_allocatorISt6vectorIiSaIiEEE8max_sizeEv
FN:129,_ZNK9__gnu_cxx13new_allocatorIiE8max_sizeEv
FNDA:0,_ZN9__gnu_cxx13new_allocatorIiEC2Ev
FNDA:0,_ZN9__gnu_cxx13new_allocatorISt6vectorIiSaIiEEEC2Ev
FNDA:0,_ZN9__gnu_cxx13new_allocatorIiEC2ERKS1_
FNDA:0,_ZN9__gnu_cxx13new_allocatorISt6vectorIiSaIiEEEC2ERKS4_
FNDA:0,_ZN9__gnu_cxx13new_allocatorIiED2Ev
FNDA:0,_ZN9__gnu_cxx13new_allocatorISt6vectorIiSaIiEEED2Ev
FNDA:0,_ZN9__gnu_cxx13new_allocatorIiE8allocateEmPKv
FNDA:0,_ZN9__gnu_cxx13new_allocatorISt6vectorIiSaIiEEE8allocateEmPKv
FNDA:0,_ZN9__gnu_cxx13new_allocatorISt6vectorIiSaIiEEE10deallocateEPS3_m
FNDA:0,_ZN9__gnu_cxx13new_allocatorIiE10deallocateEPim
FNDA:0,_ZNK9__gnu_cxx13new_allocatorIiE8max_sizeEv
FNDA:0,_ZNK9__gnu_cxx13new_allocatorISt6vectorIiSaIiEEE8max_sizeEv
FNF:12
FNH:0
DA:79,0
DA:81,0
DA:86,0
DA:99,0
DA:101,0
DA:102,0
DA:111,0
DA:116,0
DA:125,0
DA:126,0
DA:129,0
DA:130,0
LF:12
LH:0
end_of_record
SF:/usr/include/c++/7/initializer_list
FN:71,_ZNKSt16initializer_listISt6vectorIiSaIiEEE4sizeEv
FN:71,_ZNKSt16initializer_listIiE4sizeEv
FN:75,_ZNKSt16initializer_listIiE5beginEv
FN:75,_ZNKSt16initializer_listISt6vectorIiSaIiEEE5beginEv
FN:79,_ZNKSt16initializer_listIiE3endEv
FN:79,_ZNKSt16initializer_listISt6vectorIiSaIiEEE3endEv
FNDA:0,_ZNKSt16initializer_listIiE4sizeEv
FNDA:0,_ZNKSt16initializer_listISt6vectorIiSaIiEEE4sizeEv
FNDA:0,_ZNKSt16initializer_listIiE5beginEv
FNDA:0,_ZNKSt16initializer_listISt6vectorIiSaIiEEE5beginEv
FNDA:0,_ZNKSt16initializer_listIiE3endEv
FNDA:0,_ZNKSt16initializer_listISt6vectorIiSaIiEEE3endEv
FNF:6
FNH:0
DA:71,0
DA:75,0
DA:79,0
LF:3
LH:0
end_of_record
SF:/usr/include/c++/7/iostream
DA:74,6
LF:1
LH:1
end_of_record
SF:/usr/include/c++/7/new
FN:168,_ZnwmPv
FN:174,_ZdlPvS_
FNDA:0,_ZnwmPv
FNDA:0,_ZdlPvS_
FNF:2
FNH:0
DA:168,0
DA:169,0
DA:174,0
LF:3
LH:0
end_of_record
TN:
SF:/home/msaied/Documents/TPI-morfologia-matematica/lib/googletest-master/googletest/include/gtest/gtest-message.h
FN:85,_ZN7testing7MessageD2Ev
FNDA:0,_ZN7testing7MessageD2Ev
FNF:1
FNH:0
DA:85,0
LF:1
LH:0
end_of_record
SF:/home/msaied/Documents/TPI-morfologia-matematica/lib/googletest-master/googletest/include/gtest/gtest-printers.h
FN:258,_ZN16testing_internal26DefaultPrintNonContainerToIiEEvRKT_PSo
FN:311,_ZN7testing8internal19FormatForComparisonISt6vectorIS2_IiSaIiEESaIS4_EES6_E6FormatB5cxx11ERKS6_
FN:385,_ZN7testing8internal33FormatForComparisonFailureMessageISt6vectorIS2_IiSaIiEESaIS4_EES6_EENSt7__cxx1112basic_stringIcSt11char_traitsIcESaIcEEERKT_RKT0_
FN:414,_ZN7testing8internal14DefaultPrintToISt6vectorIS2_IiSaIiEESaIS4_EEEEvNS0_15WrapPrinterTypeILNS0_18DefaultPrinterTypeE0EEERKT_PSo
FN:414,_ZN7testing8internal14DefaultPrintToISt6vectorIiSaIiEEEEvNS0_15WrapPrinterTypeILNS0_18DefaultPrinterTypeE0EEERKT_PSo
FN:474,_ZN7testing8internal14DefaultPrintToIiEEvNS0_15WrapPrinterTypeILNS0_18DefaultPrinterTypeE3EEERKT_PSo
FN:491,_ZN7testing8internal7PrintToISt6vectorIiSaIiEEEEvRKT_PSo
FN:491,_ZN7testing8internal7PrintToISt6vectorIS2_IiSaIiEESaIS4_EEEEvRKT_PSo
FN:491,_ZN7testing8internal7PrintToIiEEvRKT_PSo
FN:753,_ZN7testing8internal16UniversalPrinterISt6vectorIiSaIiEEE5PrintERKS4_PSo
FN:753,_ZN7testing8internal16UniversalPrinterISt6vectorIS2_IiSaIiEESaIS4_EEE5PrintERKS6_PSo
FN:753,_ZN7testing8internal16UniversalPrinterIiE5PrintERKiPSo
FN:858,_ZN7testing8internal21UniversalTersePrinterISt6vectorIS2_IiSaIiEESaIS4_EEE5PrintERKS6_PSo
FN:927,_ZN7testing8internal14UniversalPrintISt6vectorIiSaIiEEEEvRKT_PSo
FN:927,_ZN7testing8internal14UniversalPrintIiEEvRKT_PSo
FN:927,_ZN7testing8internal14UniversalPrintISt6vectorIS2_IiSaIiEESaIS4_EEEEvRKT_PSo
FN:1065,_ZN7testing13PrintToStringISt6vectorIS1_IiSaIiEESaIS3_EEEENSt7__cxx1112basic_stringIcSt11char_traitsIcESaIcEEERKT_
FNDA:0,_ZN16testing_internal26DefaultPrintNonContainerToIiEEvRKT_PSo
FNDA:0,_ZN7testing8internal19FormatForComparisonISt6vectorIS2_IiSaIiEESaIS4_EES6_E6FormatB5cxx11ERKS6_
FNDA:0,_ZN7testing8internal33FormatForComparisonFailureMessageISt6vectorIS2_IiSaIiEESaIS4_EES6_EENSt7__cxx1112basic_stringIcSt11char_traitsIcESaIcEEERKT_RKT0_
FNDA:0,_ZN7testing8internal14DefaultPrintToISt6vectorIiSaIiEEEEvNS0_15WrapPrinterTypeILNS0_18DefaultPrinterTypeE0EEERKT_PSo
FNDA:0,_ZN7testing8internal14DefaultPrintToISt6vectorIS2_IiSaIiEESaIS4_EEEEvNS0_15WrapPrinterTypeILNS0_18DefaultPrinterTypeE0EEERKT_PSo
FNDA:0,_ZN7testing8internal14DefaultPrintToIiEEvNS0_15WrapPrinterTypeILNS0_18DefaultPrinterTypeE3EEERKT_PSo
FNDA:0,_ZN7testing8internal7PrintToIiEEvRKT_PSo
FNDA:0,_ZN7testing8internal7PrintToISt6vectorIiSaIiEEEEvRKT_PSo
FNDA:0,_ZN7testing8internal7PrintToISt6vectorIS2_IiSaIiEESaIS4_EEEEvRKT_PSo
FNDA:0,_ZN7testing8internal16UniversalPrinterIiE5PrintERKiPSo
FNDA:0,_ZN7testing8internal16UniversalPrinterISt6vectorIiSaIiEEE5PrintERKS4_PSo
FNDA:0,_ZN7testing8internal16UniversalPrinterISt6vectorIS2_IiSaIiEESaIS4_EEE5PrintERKS6_PSo
FNDA:0,_ZN7testing8internal21UniversalTersePrinterISt6vectorIS2_IiSaIiEESaIS4_EEE5PrintERKS6_PSo
FNDA:0,_ZN7testing8internal14UniversalPrintIiEEvRKT_PSo
FNDA:0,_ZN7testing8internal14UniversalPrintISt6vectorIiSaIiEEEEvRKT_PSo
FNDA:0,_ZN7testing8internal14UniversalPrintISt6vectorIS2_IiSaIiEESaIS4_EEEEvRKT_PSo
FNDA:0,_ZN7testing13PrintToStringISt6vectorIS1_IiSaIiEESaIS3_EEEENSt7__cxx1112basic_stringIcSt11char_traitsIcESaIcEEERKT_
FNF:17
FNH:0
DA:258,0
DA:285,0
DA:286,0
DA:311,0
DA:312,0
DA:385,0
DA:387,0
DA:414,0
DA:416,0
DA:417,0
DA:418,0
DA:419,0
DA:420,0
DA:421,0
DA:422,0
DA:423,0
DA:424,0
DA:425,0
DA:428,0
DA:431,0
DA:434,0
DA:435,0
DA:437,0
DA:438,0
DA:474,0
DA:476,0
DA:477,0
DA:491,0
DA:511,0
DA:526,0
DA:753,0
DA:762,0
DA:763,0
DA:858,0
DA:859,0
DA:860,0
DA:927,0
DA:931,0
DA:932,0
DA:1065,0
DA:1066,0
DA:1067,0
DA:1068,0
LF:43
LH:0
end_of_record
SF:/home/msaied/Documents/TPI-morfologia-matematica/lib/googletest-master/googletest/include/gtest/gtest.h
FN:268,_ZN7testing15AssertionResultD2Ev
FN:304,_ZNK7testing15AssertionResultcvbEv
FN:313,_ZNK7testing15AssertionResult7messageEv
FN:318,_ZNK7testing15AssertionResult15failure_messageEv
FN:414,_ZN7testing4Test13SetUpTestCaseEv
FN:422,_ZN7testing4Test16TearDownTestCaseEv
FN:499,_ZN7testing4Test5SetupEv
FN:1414,_ZN7testing8internal18CmpHelperEQFailureISt6vectorIS2_IiSaIiEESaIS4_EES6_EENS_15AssertionResultEPKcS9_RKT_RKT0_
FN:1426,_ZN7testing8internal11CmpHelperEQISt6vectorIS2_IiSaIiEESaIS4_EES6_EENS_15AssertionResultEPKcS9_RKT_RKT0_
FN:1454,_ZN7testing8internal8EqHelperILb0EE7CompareISt6vectorIS4_IiSaIiEESaIS6_EES8_EENS_15AssertionResultEPKcSB_RKT_RKT0_
FNDA:0,_ZN7testing15AssertionResultD2Ev
FNDA:0,_ZNK7testing15AssertionResultcvbEv
FNDA:0,_ZNK7testing15AssertionResult7messageEv
FNDA:0,_ZNK7testing15AssertionResult15failure_messageEv
FNDA:0,_ZN7testing4Test13SetUpTestCaseEv
FNDA:0,_ZN7testing4Test16TearDownTestCaseEv
FNDA:0,_ZN7testing4Test5SetupEv
FNDA:0,_ZN7testing8internal18CmpHelperEQFailureISt6vectorIS2_IiSaIiEESaIS4_EES6_EENS_15AssertionResultEPKcS9_RKT_RKT0_
FNDA:12,_ZN7testing8internal11CmpHelperEQISt6vectorIS2_IiSaIiEESaIS4_EES6_EENS_15AssertionResultEPKcS9_RKT_RKT0_
FNDA:12,_ZN7testing8internal8EqHelperILb0EE7CompareISt6vectorIS4_IiSaIiEESaIS6_EES8_EENS_15AssertionResultEPKcSB_RKT_RKT0_
FNF:10
FNH:2
DA:268,0
DA:304,0
DA:313,0
DA:314,0
DA:318,0
DA:414,0
DA:422,0
DA:499,0
DA:1414,0
DA:1421,0
DA:1426,12
DA:1430,12
DA:1431,12
DA:1434,0
DA:1454,12
DA:1458,12
LF:16
LH:5
end_of_record
SF:/home/msaied/Documents/TPI-morfologia-matematica/lib/googletest-master/googletest/include/gtest/internal/gtest-internal.h
FN:448,_ZN7testing8internal15TestFactoryBaseD0Ev
FN:448,_ZN7testing8internal15TestFactoryBaseD2Ev
FN:455,_ZN7testing8internal15TestFactoryBaseC2Ev
FN:464,_ZN7testing8internal15TestFactoryImplI34cerrarFormaTest_cierreConCruz_TestEC2Ev
FN:464,_ZN7testing8internal15TestFactoryImplI44cerrarFormaTest_tapandooHuecosDeUnPixel_TestEC2Ev
FN:464,_ZN7testing8internal15TestFactoryImplI34cerrarFormaTest_cierreConCruz_TestED0Ev
FN:464,_ZN7testing8internal15TestFactoryImplI44cerrarFormaTest_tapandooHuecosDeUnPixel_TestED2Ev
FN:464,_ZN7testing8internal15TestFactoryImplI44cerrarFormaTest_tapandooHuecosDeUnPixel_TestED0Ev
FN:464,_ZN7testing8internal15TestFactoryImplI34cerrarFormaTest_cierreConCruz_TestED2Ev
FN:466,_ZN7testing8internal15TestFactoryImplI44cerrarFormaTest_tapandooHuecosDeUnPixel_TestE10CreateTestEv
FN:466,_ZN7testing8internal15TestFactoryImplI34cerrarFormaTest_cierreConCruz_TestE10CreateTestEv
FN:486,_ZN7testing8internal12CodeLocationD2Ev
FN:487,_ZN7testing8internal12CodeLocationC2ERKNSt7__cxx1112basic_stringIcSt11char_traitsIcESaIcEEEi
FNDA:0,_ZN7testing8internal15TestFactoryBaseD0Ev
FNDA:0,_ZN7testing8internal15TestFactoryBaseD2Ev
FNDA:0,_ZN7testing8internal15TestFactoryBaseC2Ev
FNDA:3,_ZN7testing8internal15TestFactoryImplI44cerrarFormaTest_tapandooHuecosDeUnPixel_TestED0Ev
FNDA:3,_ZN7testing8internal15TestFactoryImplI44cerrarFormaTest_tapandooHuecosDeUnPixel_TestED2Ev
FNDA:3,_ZN7testing8internal15TestFactoryImplI34cerrarFormaTest_cierreConCruz_TestED0Ev
FNDA:3,_ZN7testing8internal15TestFactoryImplI34cerrarFormaTest_cierreConCruz_TestED2Ev
FNDA:3,_ZN7testing8internal15TestFactoryImplI34cerrarFormaTest_cierreConCruz_TestEC2Ev
FNDA:3,_ZN7testing8internal15TestFactoryImplI44cerrarFormaTest_tapandooHuecosDeUnPixel_TestEC2Ev
FNDA:3,_ZN7testing8internal15TestFactoryImplI44cerrarFormaTest_tapandooHuecosDeUnPixel_TestE10CreateTestEv
FNDA:3,_ZN7testing8internal15TestFactoryImplI34cerrarFormaTest_cierreConCruz_TestE10CreateTestEv
FNDA:0,_ZN7testing8internal12CodeLocationD2Ev
FNDA:0,_ZN7testing8internal12CodeLocationC2ERKNSt7__cxx1112basic_stringIcSt11char_traitsIcESaIcEEEi
FNF:13
FNH:8
DA:448,0
DA:455,0
DA:464,18
DA:466,6
DA:486,0
DA:487,0
DA:488,0
LF:7
LH:2
end_of_record
SF:/home/msaied/Documents/TPI-morfologia-matematica/lib/googletest-master/googletest/include/gtest/internal/gtest-port.h
FN:1185,_ZN7testing8internal10scoped_ptrINSt7__cxx1112basic_stringIcSt11char_traitsIcESaIcEEEED2Ev
FN:1185,_ZN7testing8internal10scoped_ptrINSt7__cxx1118basic_stringstreamIcSt11char_traitsIcESaIcEEEED2Ev
FN:1188,_ZNK7testing8internal10scoped_ptrINSt7__cxx1112basic_stringIcSt11char_traitsIcESaIcEEEEptEv
FN:1189,_ZNK7testing8internal10scoped_ptrINSt7__cxx1112basic_stringIcSt11char_traitsIcESaIcEEEE3getEv
FN:1197,_ZN7testing8internal10scoped_ptrINSt7__cxx1118basic_stringstreamIcSt11char_traitsIcESaIcEEEE5resetEPS7_
FN:1197,_ZN7testing8internal10scoped_ptrINSt7__cxx1112basic_stringIcSt11char_traitsIcESaIcEEEE5resetEPS7_
FNDA:0,_ZN7testing8internal10scoped_ptrINSt7__cxx1112basic_stringIcSt11char_traitsIcESaIcEEEED2Ev
FNDA:0,_ZN7testing8internal10scoped_ptrINSt7__cxx1118basic_stringstreamIcSt11char_traitsIcESaIcEEEED2Ev
FNDA:0,_ZNK7testing8internal10scoped_ptrINSt7__cxx1112basic_stringIcSt11char_traitsIcESaIcEEEEptEv
FNDA:0,_ZNK7testing8internal10scoped_ptrINSt7__cxx1112basic_stringIcSt11char_traitsIcESaIcEEEE3getEv
FNDA:0,_ZN7testing8internal10scoped_ptrINSt7__cxx1118basic_stringstreamIcSt11char_traitsIcESaIcEEEE5resetEPS7_
FNDA:0,_ZN7testing8internal10scoped_ptrINSt7__cxx1112basic_stringIcSt11char_traitsIcESaIcEEEE5resetEPS7_
FNF:6
FNH:0
DA:1185,0
DA:1188,0
DA:1189,0
DA:1197,0
DA:1198,0
DA:1199,0
DA:1200,0
DA:1202,0
DA:1204,0
LF:9
LH:0
end_of_record
SF:/home/msaied/Documents/TPI-morfologia-matematica/tests/ej5TEST.cpp
FN:6,_ZN44cerrarFormaTest_tapandooHuecosDeUnPixel_Test8TestBodyEv
FN:6,_ZN44cerrarFormaTest_tapandooHuecosDeUnPixel_TestD0Ev
FN:6,_ZN44cerrarFormaTest_tapandooHuecosDeUnPixel_TestC2Ev
FN:6,_ZN44cerrarFormaTest_tapandooHuecosDeUnPixel_TestD2Ev
FN:37,_ZN34cerrarFormaTest_cierreConCruz_TestD2Ev
FN:37,_ZN34cerrarFormaTest_cierreConCruz_TestC2Ev
FN:37,_ZN34cerrarFormaTest_cierreConCruz_TestD0Ev
FN:37,_ZN34cerrarFormaTest_cierreConCruz_Test8TestBodyEv
FN:65,_GLOBAL__sub_I__ZN44cerrarFormaTest_tapandooHuecosDeUnPixel_Test10test_info_E
FN:65,_Z41__static_initialization_and_destruction_0ii
FNDA:3,_ZN44cerrarFormaTest_tapandooHuecosDeUnPixel_TestD0Ev
FNDA:3,_ZN44cerrarFormaTest_tapandooHuecosDeUnPixel_TestD2Ev
FNDA:3,_ZN44cerrarFormaTest_tapandooHuecosDeUnPixel_Test8TestBodyEv
FNDA:3,_ZN44cerrarFormaTest_tapandooHuecosDeUnPixel_TestC2Ev
FNDA:3,_ZN34cerrarFormaTest_cierreConCruz_TestD0Ev
FNDA:3,_ZN34cerrarFormaTest_cierreConCruz_TestD2Ev
FNDA:3,_ZN34cerrarFormaTest_cierreConCruz_Test8TestBodyEv
FNDA:3,_ZN34cerrarFormaTest_cierreConCruz_TestC2Ev
FNDA:3,_GLOBAL__sub_I__ZN44cerrarFormaTest_tapandooHuecosDeUnPixel_Test10test_info_E
FNDA:3,_Z41__static_initialization_and_destruction_0ii
FNF:10
FNH:10
DA:6,15
DA:15,6
DA:20,6
DA:29,6
DA:31,3
DA:33,3
DA:34,3
DA:37,15
DA:46,6
DA:51,6
DA:60,6
DA:62,3
DA:64,3
DA:65,12
LF:14
LH:14
end_of_record
SF:/usr/include/c++/7/bits/alloc_traits.h
FN:435,_ZNSt16allocator_traitsISaISt6vectorIiSaIiEEEE8allocateERS3_m
FN:435,_ZNSt16allocator_traitsISaIiEE8allocateERS0_m
FN:461,_ZNSt16allocator_traitsISaISt6vectorIiSaIiEEEE10deallocateERS3_PS2_m
FN:461,_ZNSt16allocator_traitsISaIiEE10deallocateERS0_Pim
FN:504,_ZNSt16allocator_traitsISaIiEE37select_on_container_copy_constructionERKS0_
FNDA:0,_ZNSt16allocator_traitsISaISt6vectorIiSaIiEEEE8allocateERS3_m
FNDA:0,_ZNSt16allocator_traitsISaIiEE8allocateERS0_m
FNDA:0,_ZNSt16allocator_traitsISaISt6vectorIiSaIiEEEE10deallocateERS3_PS2_m
FNDA:0,_ZNSt16allocator_traitsISaIiEE10deallocateERS0_Pim
FNDA:0,_ZNSt16allocator_traitsISaIiEE37select_on_container_copy_constructionERKS0_
FNF:5
FNH:0
DA:435,0
DA:436,0
DA:461,0
DA:462,0
DA:504,0
DA:505,0
LF:6
LH:0
end_of_record
SF:/usr/include/c++/7/bits/allocator.h
FN:131,_ZNSaIiEC2Ev
FN:131,_ZNSaISt6vectorIiSaIiEEEC2Ev
FN:133,_ZNSaIiEC2ERKS_
FN:133,_ZNSaISt6vectorIiSaIiEEEC2ERKS2_
FN:139,_ZNSaIiED2Ev
FN:139,_ZNSaISt6vectorIiSaIiEEED2Ev
FNDA:0,_ZNSaISt6vectorIiSaIiEEEC2Ev
FNDA:0,_ZNSaIiEC2Ev
FNDA:0,_ZNSaISt6vectorIiSaIiEEEC2ERKS2_
FNDA:0,_ZNSaIiEC2ERKS_
FNDA:0,_ZNSaISt6vectorIiSaIiEEED2Ev
FNDA:0,_ZNSaIiED2Ev
FNF:6
FNH:0
DA:131,0
DA:133,0
DA:134,0
DA:139,0
LF:4
LH:0
end_of_record
SF:/usr/include/c++/7/bits/cpp_type_traits.h
FN:408,_ZSt12__miter_baseIN9__gnu_cxx17__normal_iteratorIPKiSt6vectorIiSaIiEEEEET_S8_
FN:408,_ZSt12__miter_baseIPKiET_S2_
FNDA:0,_ZSt12__miter_baseIN9__gnu_cxx17__normal_iteratorIPKiSt6vectorIiSaIiEEEEET_S8_
FNDA:0,_ZSt12__miter_baseIPKiET_S2_
FNF:2
FNH:0
DA:408,0
DA:409,0
LF:2
LH:0
end_of_record
SF:/usr/include/c++/7/bits/ios_base.h
FN:129,_ZStorSt13_Ios_OpenmodeS_
FNDA:328,_ZStorSt13_Ios_OpenmodeS_
FNF:1
FNH:1
DA:129,328
DA:130,328
LF:2
LH:2
end_of_record
SF:/usr/include/c++/7/bits/move.h
FN:47,_ZSt11__addressofISt6vectorIiSaIiEEEPT_RS3_
FN:73,_ZSt7forwardIRKSt6vectorIiSaIiEEEOT_RNSt16remove_referenceIS5_E4typeE
FNDA:0,_ZSt11__addressofISt6vectorIiSaIiEEEPT_RS3_
FNDA:0,_ZSt7forwardIRKSt6vectorIiSaIiEEEOT_RNSt16remove_referenceIS5_E4typeE
FNF:2
FNH:0
DA:47,0
DA:48,0
DA:73,0
DA:74,0
LF:4
LH:0
end_of_record
SF:/usr/include/c++/7/bits/stl_algobase.h
FN:277,_ZSt12__niter_baseIPiET_S1_
FN:277,_ZSt12__niter_baseIPKiET_S2_
FN:357,_ZNSt11__copy_moveILb0ELb1ESt26random_access_iterator_tagE8__copy_mIiEEPT_PKS3_S6_S4_
FN:375,_ZSt13__copy_move_aILb0EPKiPiET1_T0_S4_S3_
FN:420,_ZSt14__copy_move_a2ILb0EN9__gnu_cxx17__normal_iteratorIPKiSt6vectorIiSaIiEEEEPiET1_T0_SA_S9_
FN:420,_ZSt14__copy_move_a2ILb0EPKiPiET1_T0_S4_S3_
FN:446,_ZSt4copyIN9__gnu_cxx17__normal_iteratorIPKiSt6vectorIiSaIiEEEEPiET0_T_SA_S9_
FN:446,_ZSt4copyIPKiPiET0_T_S4_S3_
FN:797,_ZNSt7__equalILb0EE5equalIPKSt6vectorIiSaIiEES6_EEbT_S7_T0_
FN:811,_ZNSt7__equalILb1EE5equalIiEEbPKT_S4_S4_
FN:821,_ZSt11__equal_auxIPKSt6vectorIiSaIiEES4_EbT_S5_T0_
FN:821,_ZSt11__equal_auxIPKiS1_EbT_S2_T0_
FN:1041,_ZSt5equalIN9__gnu_cxx17__normal_iteratorIPKSt6vectorIiSaIiEES2_IS4_SaIS4_EEEES9_EbT_SA_T0_
FN:1041,_ZSt5equalIN9__gnu_cxx17__normal_iteratorIPKiSt6vectorIiSaIiEEEES7_EbT_S8_T0_
FNDA:0,_ZSt12__niter_baseIPiET_S1_
FNDA:0,_ZSt12__niter_baseIPKiET_S2_
FNDA:0,_ZNSt11__copy_moveILb0ELb1ESt26random_access_iterator_tagE8__copy_mIiEEPT_PKS3_S6_S4_
FNDA:0,_ZSt13__copy_move_aILb0EPKiPiET1_T0_S4_S3_
FNDA:0,_ZSt14__copy_move_a2ILb0EN9__gnu_cxx17__normal_iteratorIPKiSt6vectorIiSaIiEEEEPiET1_T0_SA_S9_
FNDA:0,_ZSt14__copy_move_a2ILb0EPKiPiET1_T0_S4_S3_
FNDA:0,_ZSt4copyIN9__gnu_cxx17__normal_iteratorIPKiSt6vectorIiSaIiEEEEPiET0_T_SA_S9_
FNDA:0,_ZSt4copyIPKiPiET0_T_S4_S3_
FNDA:0,_ZNSt7__equalILb0EE5equalIPKSt6vectorIiSaIiEES6_EEbT_S7_T0_
FNDA:0,_ZNSt7__equalILb1EE5equalIiEEbPKT_S4_S4_
FNDA:0,_ZSt11__equal_auxIPKiS1_EbT_S2_T0_
FNDA:0,_ZSt11__equal_auxIPKSt6vectorIiSaIiEES4_EbT_S5_T0_
FNDA:0,_ZSt5equalIN9__gnu_cxx17__normal_iteratorIPKiSt6vectorIiSaIiEEEES7_EbT_S8_T0_
FNDA:0,_ZSt5equalIN9__gnu_cxx17__normal_iteratorIPKSt6vectorIiSaIiEES2_IS4_SaIS4_EEEES9_EbT_SA_T0_
FNF:14
FNH:0
DA:277,0
DA:278,0
DA:357,0
DA:366,0
DA:367,0
DA:368,0
DA:369,0
DA:375,0
DA:380,0
DA:386,0
DA:420,0
DA:422,0
DA:424,0
DA:446,0
DA:455,0
DA:456,0
DA:797,0
DA:799,0
DA:800,0
DA:801,0
DA:802,0
DA:811,0
DA:813,0
DA:814,0
DA:815,0
DA:821,0
DA:825,0
DA:831,0
DA:1041,0
DA:1051,0
DA:1053,0
LF:31
LH:0
end_of_record
SF:/usr/include/c++/7/bits/stl_construct.h
FN:74,_ZSt10_ConstructISt6vectorIiSaIiEEJRKS2_EEvPT_DpOT0_
FN:97,_ZSt8_DestroyISt6vectorIiSaIiEEEvPT_
FN:105,_ZNSt12_Destroy_auxILb0EE9__destroyIPSt6vectorIiSaIiEEEEvT_S6_
FN:117,_ZNSt12_Destroy_auxILb1EE9__destroyIPiEEvT_S3_
FN:127,_ZSt8_DestroyIPSt6vectorIiSaIiEEEvT_S4_
FN:127,_ZSt8_DestroyIPiEvT_S1_
FN:203,_ZSt8_DestroyIPiiEvT_S1_RSaIT0_E
FN:203,_ZSt8_DestroyIPSt6vectorIiSaIiEES2_EvT_S4_RSaIT0_E
FNDA:0,_ZSt10_ConstructISt6vectorIiSaIiEEJRKS2_EEvPT_DpOT0_
FNDA:0,_ZSt8_DestroyISt6vectorIiSaIiEEEvPT_
FNDA:0,_ZNSt12_Destroy_auxILb0EE9__destroyIPSt6vectorIiSaIiEEEEvT_S6_
FNDA:0,_ZNSt12_Destroy_auxILb1EE9__destroyIPiEEvT_S3_
FNDA:0,_ZSt8_DestroyIPSt6vectorIiSaIiEEEvT_S4_
FNDA:0,_ZSt8_DestroyIPiEvT_S1_
FNDA:0,_ZSt8_DestroyIPSt6vectorIiSaIiEES2_EvT_S4_RSaIT0_E
FNDA:0,_ZSt8_DestroyIPiiEvT_S1_RSaIT0_E
FNF:8
FNH:0
DA:74,0
DA:75,0
DA:97,0
DA:98,0
DA:105,0
DA:107,0
DA:108,0
DA:109,0
DA:117,0
DA:127,0
DA:137,0
DA:138,0
DA:203,0
DA:206,0
DA:207,0
LF:15
LH:0
end_of_record
SF:/usr/include/c++/7/bits/stl_iterator.h
FN:782,_ZN9__gnu_cxx17__normal_iteratorIPKSt6vectorIiSaIiEES1_IS3_SaIS3_EEEC2ERKS5_
FN:782,_ZN9__gnu_cxx17__normal_iteratorIPKiSt6vectorIiSaIiEEEC2ERKS2_
FN:795,_ZNK9__gnu_cxx17__normal_iteratorIPKiSt6vectorIiSaIiEEEdeEv
FN:795,_ZNK9__gnu_cxx17__normal_iteratorIPKSt6vectorIiSaIiEES1_IS3_SaIS3_EEEdeEv
FN:803,_ZN9__gnu_cxx17__normal_iteratorIPKSt6vectorIiSaIiEES1_IS3_SaIS3_EEEppEv
FN:803,_ZN9__gnu_cxx17__normal_iteratorIPKiSt6vectorIiSaIiEEEppEv
FN:847,_ZNK9__gnu_cxx17__normal_iteratorIPKSt6vectorIiSaIiEES1_IS3_SaIS3_EEE4baseEv
FN:847,_ZNK9__gnu_cxx17__normal_iteratorIPKiSt6vectorIiSaIiEEE4baseEv
FN:883,_ZN9__gnu_cxxneIPKSt6vectorIiSaIiEES1_IS3_SaIS3_EEEEbRKNS_17__normal_iteratorIT_T0_EESD_
FN:883,_ZN9__gnu_cxxneIPKiSt6vectorIiSaIiEEEEbRKNS_17__normal_iteratorIT_T0_EESB_
FN:986,_ZSt12__niter_baseIPKSt6vectorIiSaIiEES0_IS2_SaIS2_EEET_N9__gnu_cxx17__normal_iteratorIS7_T0_EE
FN:986,_ZSt12__niter_baseIPKiSt6vectorIiSaIiEEET_N9__gnu_cxx17__normal_iteratorIS5_T0_EE
FNDA:0,_ZN9__gnu_cxx17__normal_iteratorIPKiSt6vectorIiSaIiEEEC2ERKS2_
FNDA:0,_ZN9__gnu_cxx17__normal_iteratorIPKSt6vectorIiSaIiEES1_IS3_SaIS3_EEEC2ERKS5_
FNDA:0,_ZNK9__gnu_cxx17__normal_iteratorIPKiSt6vectorIiSaIiEEEdeEv
FNDA:0,_ZNK9__gnu_cxx17__normal_iteratorIPKSt6vectorIiSaIiEES1_IS3_SaIS3_EEEdeEv
FNDA:0,_ZN9__gnu_cxx17__normal_iteratorIPKiSt6vectorIiSaIiEEEppEv
FNDA:0,_ZN9__gnu_cxx17__normal_iteratorIPKSt6vectorIiSaIiEES1_IS3_SaIS3_EEEppEv
FNDA:0,_ZNK9__gnu_cxx17__normal_iteratorIPKiSt6vectorIiSaIiEEE4baseEv
FNDA:0,_ZNK9__gnu_cxx17__normal_iteratorIPKSt6vectorIiSaIiEES1_IS3_SaIS3_EEE4baseEv
FNDA:0,_ZN9__gnu_cxxneIPKiSt6vectorIiSaIiEEEEbRKNS_17__normal_iteratorIT_T0_EESB_
FNDA:0,_ZN9__gnu_cxxneIPKSt6vectorIiSaIiEES1_IS3_SaIS3_EEEEbRKNS_17__normal_iteratorIT_T0_EESD_
FNDA:0,_ZSt12__niter_baseIPKiSt6vectorIiSaIiEEET_N9__gnu_cxx17__normal_iteratorIS5_T0_EE
FNDA:0,_ZSt12__niter_baseIPKSt6vectorIiSaIiEES0_IS2_SaIS2_EEET_N9__gnu_cxx17__normal_iteratorIS7_T0_EE
FNF:12
FNH:0
DA:782,0
DA:783,0
DA:795,0
DA:796,0
DA:803,0
DA:805,0
DA:806,0
DA:847,0
DA:848,0
DA:883,0
DA:886,0
DA:986,0
DA:987,0
LF:13
LH:0
end_of_record
SF:/usr/include/c++/7/bits/stl_iterator_base_funcs.h
FN:98,_ZSt10__distanceIPKSt6vectorIiSaIiEEENSt15iterator_traitsIT_E15difference_typeES6_S6_St26random_access_iterator_tag
FN:98,_ZSt10__distanceIPKiENSt15iterator_traitsIT_E15difference_typeES3_S3_St26random_access_iterator_tag
FN:138,_ZSt8distanceIPKSt6vectorIiSaIiEEENSt15iterator_traitsIT_E15difference_typeES6_S6_
FN:138,_ZSt8distanceIPKiENSt15iterator_traitsIT_E15difference_typeES3_S3_
FNDA:0,_ZSt10__distanceIPKSt6vectorIiSaIiEEENSt15iterator_traitsIT_E15difference_typeES6_S6_St26random_access_iterator_tag
FNDA:0,_ZSt10__distanceIPKiENSt15iterator_traitsIT_E15difference_typeES3_S3_St26random_access_iterator_tag
FNDA:0,_ZSt8distanceIPKSt6vectorIiSaIiEEENSt15iterator_traitsIT_E15difference_typeES6_S6_
FNDA:0,_ZSt8distanceIPKiENSt15iterator_traitsIT_E15difference_typeES3_S3_
FNF:4
FNH:0
DA:98,0
DA:104,0
DA:138,0
DA:141,0
DA:142,0
LF:5
LH:0
end_of_record
SF:/usr/include/c++/7/bits/stl_iterator_base_types.h
FN:205,_ZSt19__iterator_categoryIPKSt6vectorIiSaIiEEENSt15iterator_traitsIT_E17iterator_categoryERKS6_
FN:205,_ZSt19__iterator_categoryIPKiENSt15iterator_traitsIT_E17iterator_categoryERKS3_
FNDA:0,_ZSt19__iterator_categoryIPKSt6vectorIiSaIiEEENSt15iterator_traitsIT_E17iterator_categoryERKS6_
FNDA:0,_ZSt19__iterator_categoryIPKiENSt15iterator_traitsIT_E17iterator_categoryERKS3_
FNF:2
FNH:0
DA:205,0
DA:206,0
LF:2
LH:0
end_of_record
SF:/usr/include/c++/7/bits/stl_uninitialized.h
FN:76,_ZNSt20__uninitialized_copyILb0EE13__uninit_copyIPKSt6vectorIiSaIiEEPS4_EET0_T_S9_S8_
FN:99,_ZNSt20__uninitialized_copyILb1EE13__uninit_copyIN9__gnu_cxx17__normal_iteratorIPKiSt6vectorIiSaIiEEEEPiEET0_T_SC_SB_
FN:99,_ZNSt20__uninitialized_copyILb1EE13__uninit_copyIPKiPiEET0_T_S6_S5_
FN:115,_ZSt18uninitialized_copyIPKSt6vectorIiSaIiEEPS2_ET0_T_S7_S6_
FN:115,_ZSt18uninitialized_copyIPKiPiET0_T_S4_S3_
FN:115,_ZSt18uninitialized_copyIN9__gnu_cxx17__normal_iteratorIPKiSt6vectorIiSaIiEEEEPiET0_T_SA_S9_
FN:287,_ZSt22__uninitialized_copy_aIPKSt6vectorIiSaIiEEPS2_S2_ET0_T_S7_S6_RSaIT1_E
FN:287,_ZSt22__uninitialized_copy_aIN9__gnu_cxx17__normal_iteratorIPKiSt6vectorIiSaIiEEEEPiiET0_T_SA_S9_RSaIT1_E
FN:287,_ZSt22__uninitialized_copy_aIPKiPiiET0_T_S4_S3_RSaIT1_E
FNDA:0,_ZNSt20__uninitialized_copyILb0EE13__uninit_copyIPKSt6vectorIiSaIiEEPS4_EET0_T_S9_S8_
FNDA:0,_ZNSt20__uninitialized_copyILb1EE13__uninit_copyIN9__gnu_cxx17__normal_iteratorIPKiSt6vectorIiSaIiEEEEPiEET0_T_SC_SB_
FNDA:0,_ZNSt20__uninitialized_copyILb1EE13__uninit_copyIPKiPiEET0_T_S6_S5_
FNDA:0,_ZSt18uninitialized_copyIN9__gnu_cxx17__normal_iteratorIPKiSt6vectorIiSaIiEEEEPiET0_T_SA_S9_
FNDA:0,_ZSt18uninitialized_copyIPKSt6vectorIiSaIiEEPS2_ET0_T_S7_S6_
FNDA:0,_ZSt18uninitialized_copyIPKiPiET0_T_S4_S3_
FNDA:0,_ZSt22__uninitialized_copy_aIN9__gnu_cxx17__normal_iteratorIPKiSt6vectorIiSaIiEEEEPiiET0_T_SA_S9_RSaIT1_E
FNDA:0,_ZSt22__uninitialized_copy_aIPKSt6vectorIiSaIiEEPS2_S2_ET0_T_S7_S6_RSaIT1_E
FNDA:0,_ZSt22__uninitialized_copy_aIPKiPiiET0_T_S4_S3_RSaIT1_E
FNF:9
FNH:0
DA:76,0
DA:79,0
DA:82,0
DA:83,0
DA:84,0
DA:86,0
DA:88,0
DA:89,0
DA:99,0
DA:101,0
DA:115,0
DA:128,0
DA:134,0
DA:287,0
DA:289,0
LF:15
LH:0
end_of_record
SF:/usr/include/c++/7/bits/stl_vector.h
FN:81,_ZNSt12_Vector_baseISt6vectorIiSaIiEESaIS2_EE12_Vector_implD2Ev
FN:81,_ZNSt12_Vector_baseIiSaIiEE12_Vector_implD2Ev
FN:92,_ZNSt12_Vector_baseIiSaIiEE12_Vector_implC2ERKS0_
FN:92,_ZNSt12_Vector_baseISt6vectorIiSaIiEESaIS2_EE12_Vector_implC2ERKS3_
FN:115,_ZNSt12_Vector_baseIiSaIiEE19_M_get_Tp_allocatorEv
FN:115,_ZNSt12_Vector_baseISt6vectorIiSaIiEESaIS2_EE19_M_get_Tp_allocatorEv
FN:119,_ZNKSt12_Vector_baseIiSaIiEE19_M_get_Tp_allocatorEv
FN:129,_ZNSt12_Vector_baseISt6vectorIiSaIiEESaIS2_EEC2ERKS3_
FN:129,_ZNSt12_Vector_baseIiSaIiEEC2ERKS0_
FN:136,_ZNSt12_Vector_baseIiSaIiEEC2EmRKS0_
FN:161,_ZNSt12_Vector_baseIiSaIiEED2Ev
FN:161,_ZNSt12_Vector_baseISt6vectorIiSaIiEESaIS2_EED2Ev
FN:169,_ZNSt12_Vector_baseIiSaIiEE11_M_allocateEm
FN:169,_ZNSt12_Vector_baseISt6vectorIiSaIiEESaIS2_EE11_M_allocateEm
FN:176,_ZNSt12_Vector_baseIiSaIiEE13_M_deallocateEPim
FN:176,_ZNSt12_Vector_baseISt6vectorIiSaIiEESaIS2_EE13_M_deallocateEPS2_m
FN:185,_ZNSt12_Vector_baseIiSaIiEE17_M_create_storageEm
FN:326,_ZNSt6vectorIiSaIiEEC2ERKS1_
FN:383,_ZNSt6vectorIiSaIiEEC2ESt16initializer_listIiERKS0_
FN:383,_ZNSt6vectorIS_IiSaIiEESaIS1_EEC2ESt16initializer_listIS1_ERKS2_
FN:433,_ZNSt6vectorIiSaIiEED2Ev
FN:433,_ZNSt6vectorIS_IiSaIiEESaIS1_EED2Ev
FN:572,_ZNKSt6vectorIS_IiSaIiEESaIS1_EE5beginEv
FN:572,_ZNKSt6vectorIiSaIiEE5beginEv
FN:590,_ZNKSt6vectorIS_IiSaIiEESaIS1_EE3endEv
FN:590,_ZNKSt6vectorIiSaIiEE3endEv
FN:670,_ZNKSt6vectorIiSaIiEE4sizeEv
FN:670,_ZNKSt6vectorIS_IiSaIiEESaIS1_EE4sizeEv
FN:1324,_ZNSt6vectorIiSaIiEE19_M_range_initializeIPKiEEvT_S5_St20forward_iterator_tag
FN:1324,_ZNSt6vectorIS_IiSaIiEESaIS1_EE19_M_range_initializeIPKS1_EEvT_S7_St20forward_iterator_tag
FN:1601,_ZSteqISt6vectorIiSaIiEESaIS2_EEbRKS0_IT_T0_ES8_
FN:1601,_ZSteqIiSaIiEEbRKSt6vectorIT_T0_ES6_
FNDA:0,_ZNSt12_Vector_baseISt6vectorIiSaIiEESaIS2_EE12_Vector_implD2Ev
FNDA:0,_ZNSt12_Vector_baseIiSaIiEE12_Vector_implD2Ev
FNDA:0,_ZNSt12_Vector_baseISt6vectorIiSaIiEESaIS2_EE12_Vector_implC2ERKS3_
FNDA:0,_ZNSt12_Vector_baseIiSaIiEE12_Vector_implC2ERKS0_
FNDA:0,_ZNSt12_Vector_baseISt6vectorIiSaIiEESaIS2_EE19_M_get_Tp_allocatorEv
FNDA:0,_ZNSt12_Vector_baseIiSaIiEE19_M_get_Tp_allocatorEv
FNDA:0,_ZNKSt12_Vector_baseIiSaIiEE19_M_get_Tp_allocatorEv
FNDA:0,_ZNSt12_Vector_baseISt6vectorIiSaIiEESaIS2_EEC2ERKS3_
FNDA:0,_ZNSt12_Vector_baseIiSaIiEEC2ERKS0_
FNDA:0,_ZNSt12_Vector_baseIiSaIiEEC2EmRKS0_
FNDA:0,_ZNSt12_Vector_baseISt6vectorIiSaIiEESaIS2_EED2Ev
FNDA:0,_ZNSt12_Vector_baseIiSaIiEED2Ev
FNDA:0,_ZNSt12_Vector_baseISt6vectorIiSaIiEESaIS2_EE11_M_allocateEm
FNDA:0,_ZNSt12_Vector_baseIiSaIiEE11_M_allocateEm
FNDA:0,_ZNSt12_Vector_baseISt6vectorIiSaIiEESaIS2_EE13_M_deallocateEPS2_m
FNDA:0,_ZNSt12_Vector_baseIiSaIiEE13_M_deallocateEPim
FNDA:0,_ZNSt12_Vector_baseIiSaIiEE17_M_create_storageEm
FNDA:0,_ZNSt6vectorIiSaIiEEC2ERKS1_
FNDA:0,_ZNSt6vectorIS_IiSaIiEESaIS1_EEC2ESt16initializer_listIS1_ERKS2_
FNDA:0,_ZNSt6vectorIiSaIiEEC2ESt16initializer_listIiERKS0_
FNDA:0,_ZNSt6vectorIS_IiSaIiEESaIS1_EED2Ev
FNDA:0,_ZNSt6vectorIiSaIiEED2Ev
FNDA:0,_ZNKSt6vectorIiSaIiEE5beginEv
FNDA:0,_ZNKSt6vectorIS_IiSaIiEESaIS1_EE5beginEv
FNDA:0,_ZNKSt6vectorIiSaIiEE3endEv
FNDA:0,_ZNKSt6vectorIS_IiSaIiEESaIS1_EE3endEv
FNDA:0,_ZNKSt6vectorIiSaIiEE4sizeEv
FNDA:0,_ZNKSt6vectorIS_IiSaIiEESaIS1_EE4sizeEv
FNDA:0,_ZNSt6vectorIS_IiSaIiEESaIS1_EE19_M_range_initializeIPKS1_EEvT_S7_St20forward_iterator_tag
FNDA:0,_ZNSt6vectorIiSaIiEE19_M_range_initializeIPKiEEvT_S5_St20forward_iterator_tag
FNDA:0,_ZSteqIiSaIiEEbRKSt6vectorIT_T0_ES6_
FNDA:0,_ZSteqISt6vectorIiSaIiEESaIS2_EEbRKS0_IT_T0_ES8_
FNF:32
FNH:0
DA:81,0
DA:92,0
DA:93,0
DA:94,0
DA:115,0
DA:116,0
DA:119,0
DA:120,0
DA:129,0
DA:130,0
DA:136,0
DA:137,0
DA:138,0
DA:161,0
DA:162,0
DA:163,0
DA:169,0
DA:172,0
DA:176,0
DA:179,0
DA:180,0
DA:181,0
DA:185,0
DA:187,0
DA:188,0
DA:189,0
DA:190,0
DA:326,0
DA:328,0
DA:330,0
DA:331,0
DA:333,0
DA:334,0
DA:383,0
DA:385,0
DA:387,0
DA:389,0
DA:433,0
DA:434,0
DA:435,0
DA:572,0
DA:573,0
DA:590,0
DA:591,0
DA:670,0
DA:671,0
DA:1324,0
DA:1327,0
DA:1328,0
DA:1329,0
DA:1330,0
DA:1331,0
DA:1333,0
DA:1334,0
DA:1601,0
DA:1602,0
DA:1603,0
LF:57
LH:0
end_of_record
SF:/usr/include/c++/7/ext/alloc_traits.h
FN:94,_ZN9__gnu_cxx14__alloc_traitsISaIiEE17_S_select_on_copyERKS1_
FNDA:0,_ZN9__gnu_cxx14__alloc_traitsISaIiEE17_S_select_on_copyERKS1_
FNF:1
FNH:0
DA:94,0
DA:95,0
LF:2
LH:0
end_of_record
SF:/usr/include/c++/7/ext/new_allocator.h
FN:79,_ZN9__gnu_cxx13new_allocatorIiEC2Ev
FN:79,_ZN9__gnu_cxx13new_allocatorISt6vectorIiSaIiEEEC2Ev
FN:81,_ZN9__gnu_cxx13new_allocatorISt6vectorIiSaIiEEEC2ERKS4_
FN:81,_ZN9__gnu_cxx13new_allocatorIiEC2ERKS1_
FN:86,_ZN9__gnu_cxx13new_allocatorISt6vectorIiSaIiEEED2Ev
FN:86,_ZN9__gnu_cxx13new_allocatorIiED2Ev
FN:99,_ZN9__gnu_cxx13new_allocatorIiE8allocateEmPKv
FN:99,_ZN9__gnu_cxx13new_allocatorISt6vectorIiSaIiEEE8allocateEmPKv
FN:116,_ZN9__gnu_cxx13new_allocatorIiE10deallocateEPim
FN:116,_ZN9__gnu_cxx13new_allocatorISt6vectorIiSaIiEEE10deallocateEPS3_m
FN:129,_ZNK9__gnu_cxx13new_allocatorIiE8max_sizeEv
FN:129,_ZNK9__gnu_cxx13new_allocatorISt6vectorIiSaIiEEE8max_sizeEv
FNDA:0,_ZN9__gnu_cxx13new_allocatorISt6vectorIiSaIiEEEC2Ev
FNDA:0,_ZN9__gnu_cxx13new_allocatorIiEC2Ev
FNDA:0,_ZN9__gnu_cxx13new_allocatorISt6vectorIiSaIiEEEC2ERKS4_
FNDA:0,_ZN9__gnu_cxx13new_allocatorIiEC2ERKS1_
FNDA:0,_ZN9__gnu_cxx13new_allocatorISt6vectorIiSaIiEEED2Ev
FNDA:0,_ZN9__gnu_cxx13new_allocatorIiED2Ev
FNDA:0,_ZN9__gnu_cxx13new_allocatorISt6vectorIiSaIiEEE8allocateEmPKv
FNDA:0,_ZN9__gnu_cxx13new_allocatorIiE8allocateEmPKv
FNDA:0,_ZN9__gnu_cxx13new_allocatorISt6vectorIiSaIiEEE10deallocateEPS3_m
FNDA:0,_ZN9__gnu_cxx13new_allocatorIiE10deallocateEPim
FNDA:0,_ZNK9__gnu_cxx13new_allocatorISt6vectorIiSaIiEEE8max_sizeEv
FNDA:0,_ZNK9__gnu_cxx13new_allocatorIiE8max_sizeEv
FNF:12
FNH:0
DA:79,0
DA:81,0
DA:86,0
DA:99,0
DA:101,0
DA:102,0
DA:111,0
DA:116,0
DA:125,0
DA:126,0
DA:129,0
DA:130,0
LF:12
LH:0
end_of_record
SF:/usr/include/c++/7/initializer_list
FN:71,_ZNKSt16initializer_listIiE4sizeEv
FN:71,_ZNKSt16initializer_listISt6vectorIiSaIiEEE4sizeEv
FN:75,_ZNKSt16initializer_listIiE5beginEv
FN:75,_ZNKSt16initializer_listISt6vectorIiSaIiEEE5beginEv
FN:79,_ZNKSt16initializer_listIiE3endEv
FN:79,_ZNKSt16initializer_listISt6vectorIiSaIiEEE3endEv
FNDA:0,_ZNKSt16initializer_listISt6vectorIiSaIiEEE4sizeEv
FNDA:0,_ZNKSt16initializer_listIiE4sizeEv
FNDA:0,_ZNKSt16initializer_listISt6vectorIiSaIiEEE5beginEv
FNDA:0,_ZNKSt16initializer_listIiE5beginEv
FNDA:0,_ZNKSt16initializer_listISt6vectorIiSaIiEEE3endEv
FNDA:0,_ZNKSt16initializer_listIiE3endEv
FNF:6
FNH:0
DA:71,0
DA:75,0
DA:79,0
LF:3
LH:0
end_of_record
SF:/usr/include/c++/7/iostream
DA:74,3
LF:1
LH:1
end_of_record
SF:/usr/include/c++/7/new
FN:168,_ZnwmPv
FN:174,_ZdlPvS_
FNDA:0,_ZnwmPv
FNDA:0,_ZdlPvS_
FNF:2
FNH:0
DA:168,0
DA:169,0
DA:174,0
LF:3
LH:0
end_of_record
TN:
SF:/home/msaied/Documents/TPI-morfologia-matematica/lib/googletest-master/googletest/include/gtest/gtest-message.h
FN:85,_ZN7testing7MessageD2Ev
FNDA:0,_ZN7testing7MessageD2Ev
FNF:1
FNH:0
DA:85,0
LF:1
LH:0
end_of_record
SF:/home/msaied/Documents/TPI-morfologia-matematica/lib/googletest-master/googletest/include/gtest/gtest.h
FN:268,_ZN7testing15AssertionResultD2Ev
FN:286,_ZN7testing15AssertionResultC2IbEERKT_PNS_8internal8EnableIfIXntsrNS5_21ImplicitlyConvertibleIS2_S0_EE5valueEE4typeE
FN:304,_ZNK7testing15AssertionResultcvbEv
FN:414,_ZN7testing4Test13SetUpTestCaseEv
FN:422,_ZN7testing4Test16TearDownTestCaseEv
FN:499,_ZN7testing4Test5SetupEv
FNDA:0,_ZN7testing15AssertionResultD2Ev
FNDA:0,_ZN7testing15AssertionResultC2IbEERKT_PNS_8internal8EnableIfIXntsrNS5_21ImplicitlyConvertibleIS2_S0_EE5valueEE4typeE
FNDA:0,_ZNK7testing15AssertionResultcvbEv
FNDA:0,_ZN7testing4Test13SetUpTestCaseEv
FNDA:0,_ZN7testing4Test16TearDownTestCaseEv
FNDA:0,_ZN7testing4Test5SetupEv
FNF:6
FNH:0
DA:268,0
DA:286,0
DA:291,0
DA:304,0
DA:414,0
DA:422,0
DA:499,0
LF:7
LH:0
end_of_record
SF:/home/msaied/Documents/TPI-morfologia-matematica/lib/googletest-master/googletest/include/gtest/internal/gtest-internal.h
FN:448,_ZN7testing8internal15TestFactoryBaseD0Ev
FN:448,_ZN7testing8internal15TestFactoryBaseD2Ev
FN:455,_ZN7testing8internal15TestFactoryBaseC2Ev
FN:464,_ZN7testing8internal15TestFactoryImplI73sonPixelesConectadosTest_PixelesEnCaminoLargoAdy4EstanConectadosAdy4_TestED0Ev
FN:464,_ZN7testing8internal15TestFactoryImplI79sonPixelesConectadosTest_PixelesEnHorizontalSeparadosNoEstanConectadosAdy4_TestEC2Ev
FN:464,_ZN7testing8internal15TestFactoryImplI77sonPixelesConectadosTest_PixelesEnVerticalSeparadosNoEstanConectadosAdy4_TestEC2Ev
FN:464,_ZN7testing8internal15TestFactoryImplI62sonPixelesConectadosTest_PixelesEnAdy4EstanConectadosAdy8_TestEC2Ev
FN:464,_ZN7testing8internal15TestFactoryImplI68sonPixelesConectadosTest_PixelesEnHorizontalEstanConectadosAdy4_TestEC2Ev
FN:464,_ZN7testing8internal15TestFactoryImplI73sonPixelesConectadosTest_PixelesEnCaminoLargoAdy4EstanConectadosAdy4_TestED2Ev
FN:464,_ZN7testing8internal15TestFactoryImplI86sonPixelesConectadosTest_PixelesEnHorizontalAlRevesSeparadosNoEstanConectadosAdy4_TestED0Ev
FN:464,_ZN7testing8internal15TestFactoryImplI69sonPixelesConectadosTest_PixelesConectadosPorUnPixelVerticalAdy4_TestED0Ev
FN:464,_ZN7testing8internal15TestFactoryImplI68sonPixelesConectadosTest_PixelesEnHorizontalEstanConectadosAdy4_TestED0Ev
FN:464,_ZN7testing8internal15TestFactoryImplI81sonPixelesConectadosTest_PixelesConectadosPorMuchosPixelesParaTodosLadosAdy4_TestEC2Ev
FN:464,_ZN7testing8internal15TestFactoryImplI73sonPixelesConectadosTest_PixelesEnCaminoLargoAdy8EstanConectadosAdy8_TestED2Ev
FN:464,_ZN7testing8internal15TestFactoryImplI68sonPixelesConectadosTest_PixelesEnDiagonalNoEstanConectadosAdy4_TestED0Ev
FN:464,_ZN7testing8internal15TestFactoryImplI68sonPixelesConectadosTest_PixelesEnHorizontalEstanConectadosAdy4_TestED2Ev
FN:464,_ZN7testing8internal15TestFactoryImplI59sonPixelesConectadosTest_PixelesIgualesEstanConectados_TestEC2Ev
FN:464,_ZN7testing8internal15TestFactoryImplI66sonPixelesConectadosTest_PixelesEnDiagonalEstanConectadosAdy8_TestED2Ev
FN:464,_ZN7testing8internal15TestFactoryImplI68sonPixelesConectadosTest_PixelesEnDiagonalNoEstanConectadosAdy4_TestEC2Ev
FN:464,_ZN7testing8internal15TestFactoryImplI77sonPixelesConectadosTest_PixelesConectadosPorMuchosPixelesVerticalesAdy4_TestED0Ev
FN:464,_ZN7testing8internal15TestFactoryImplI77sonPixelesConectadosTest_PixelesConectadosPorMuchosPixelesVerticalesAdy4_TestED2Ev
FN:464,_ZN7testing8internal15TestFactoryImplI84sonPixelesConectadosTest_PixelesEnVerticalAlRevesSeparadosNoEstanConectadosAdy4_TestED0Ev
FN:464,_ZN7testing8internal15TestFactoryImplI77sonPixelesConectadosTest_PixelesEnVerticalSeparadosNoEstanConectadosAdy4_TestED0Ev
FN:464,_ZN7testing8internal15TestFactoryImplI84sonPixelesConectadosTest_PixelesEnVerticalAlRevesSeparadosNoEstanConectadosAdy4_TestEC2Ev
FN:464,_ZN7testing8internal15TestFactoryImplI66sonPixelesConectadosTest_PixelesEnDiagonalEstanConectadosAdy8_TestED0Ev
FN:464,_ZN7testing8internal15TestFactoryImplI59sonPixelesConectadosTest_PixelesIgualesEstanConectados_TestED2Ev
FN:464,_ZN7testing8internal15TestFactoryImplI68sonPixelesConectadosTest_PixelesEnCaminoAdy4EstanConectadosAdy8_TestED0Ev
FN:464,_ZN7testing8internal15TestFactoryImplI68sonPixelesConectadosTest_PixelesEnCaminoAdy8EstanConectadosAdy8_TestEC2Ev
FN:464,_ZN7testing8internal15TestFactoryImplI62sonPixelesConectadosTest_PixelesEnAdy4EstanConectadosAdy8_TestED0Ev
FN:464,_ZN7testing8internal15TestFactoryImplI84sonPixelesConectadosTest_PixelesEnVerticalAlRevesSeparadosNoEstanConectadosAdy4_TestED2Ev
FN:464,_ZN7testing8internal15TestFactoryImplI75sonPixelesConectadosTest_PixelesEnCaminoLargoAdy8NoEstanConectadosAdy4_TestED0Ev
FN:464,_ZN7testing8internal15TestFactoryImplI68sonPixelesConectadosTest_PixelesEnCaminoAdy4EstanConectadosAdy8_TestED2Ev
FN:464,_ZN7testing8internal15TestFactoryImplI81sonPixelesConectadosTest_PixelesConectadosPorMuchosPixelesParaTodosLadosAdy4_TestED2Ev
FN:464,_ZN7testing8internal15TestFactoryImplI67sonPixelesConectadosTest_PixelesSeparadosNoEstanConectadosAdy8_TestED0Ev
FN:464,_ZN7testing8internal15TestFactoryImplI68sonPixelesConectadosTest_PixelesEnCaminoAdy8EstanConectadosAdy8_TestED2Ev
FN:464,_ZN7testing8internal15TestFactoryImplI59sonPixelesConectadosTest_PixelesIgualesEstanConectados_TestED0Ev
FN:464,_ZN7testing8internal15TestFactoryImplI67sonPixelesConectadosTest_PixelesSeparadosNoEstanConectadosAdy8_TestED2Ev
FN:464,_ZN7testing8internal15TestFactoryImplI77sonPixelesConectadosTest_PixelesEnVerticalSeparadosNoEstanConectadosAdy4_TestED2Ev
FN:464,_ZN7testing8internal15TestFactoryImplI73sonPixelesConectadosTest_PixelesEnCaminoLargoAdy8EstanConectadosAdy8_TestEC2Ev
FN:464,_ZN7testing8internal15TestFactoryImplI62sonPixelesConectadosTest_PixelesEnAdy4EstanConectadosAdy8_TestED2Ev
FN:464,_ZN7testing8internal15TestFactoryImplI68sonPixelesConectadosTest_PixelesEnDiagonalNoEstanConectadosAdy4_TestED2Ev
FN:464,_ZN7testing8internal15TestFactoryImplI66sonPixelesConectadosTest_PixelesEnDiagonalEstanConectadosAdy8_TestEC2Ev
FN:464,_ZN7testing8internal15TestFactoryImplI81sonPixelesConectadosTest_PixelesConectadosPorMuchosPixelesParaTodosLadosAdy4_TestED0Ev
FN:464,_ZN7testing8internal15TestFactoryImplI86sonPixelesConectadosTest_PixelesEnHorizontalAlRevesSeparadosNoEstanConectadosAdy4_TestEC2Ev
FN:464,_ZN7testing8internal15TestFactoryImplI79sonPixelesConectadosTest_PixelesEnHorizontalSeparadosNoEstanConectadosAdy4_TestED0Ev
FN:464,_ZN7testing8internal15TestFactoryImplI75sonPixelesConectadosTest_PixelesEnCaminoLargoAdy8NoEstanConectadosAdy4_TestEC2Ev
FN:464,_ZN7testing8internal15TestFactoryImplI77sonPixelesConectadosTest_PixelesConectadosPorMuchosPixelesVerticalesAdy4_TestEC2Ev
FN:464,_ZN7testing8internal15TestFactoryImplI73sonPixelesConectadosTest_PixelesEnCaminoLargoAdy4EstanConectadosAdy4_TestEC2Ev
FN:464,_ZN7testing8internal15TestFactoryImplI69sonPixelesConectadosTest_PixelesConectadosPorUnPixelVerticalAdy4_TestED2Ev
FN:464,_ZN7testing8internal15TestFactoryImplI69sonPixelesConectadosTest_PixelesConectadosPorUnPixelVerticalAdy4_TestEC2Ev
FN:464,_ZN7testing8internal15TestFactoryImplI73sonPixelesConectadosTest_PixelesEnCaminoLargoAdy8EstanConectadosAdy8_TestED0Ev
FN:464,_ZN7testing8internal15TestFactoryImplI68sonPixelesConectadosTest_PixelesEnCaminoAdy8EstanConectadosAdy8_TestED0Ev
FN:464,_ZN7testing8internal15TestFactoryImplI86sonPixelesConectadosTest_PixelesEnHorizontalAlRevesSeparadosNoEstanConectadosAdy4_TestED2Ev
FN:464,_ZN7testing8internal15TestFactoryImplI68sonPixelesConectadosTest_PixelesEnCaminoAdy4EstanConectadosAdy8_TestEC2Ev
FN:464,_ZN7testing8internal15TestFactoryImplI79sonPixelesConectadosTest_PixelesEnHorizontalSeparadosNoEstanConectadosAdy4_TestED2Ev
FN:464,_ZN7testing8internal15TestFactoryImplI75sonPixelesConectadosTest_PixelesEnCaminoLargoAdy8NoEstanConectadosAdy4_TestED2Ev
FN:464,_ZN7testing8internal15TestFactoryImplI67sonPixelesConectadosTest_PixelesSeparadosNoEstanConectadosAdy8_TestEC2Ev
FN:466,_ZN7testing8internal15TestFactoryImplI84sonPixelesConectadosTest_PixelesEnVerticalAlRevesSeparadosNoEstanConectadosAdy4_TestE10CreateTestEv
FN:466,_ZN7testing8internal15TestFactoryImplI68sonPixelesConectadosTest_PixelesEnCaminoAdy4EstanConectadosAdy8_TestE10CreateTestEv
FN:466,_ZN7testing8internal15TestFactoryImplI73sonPixelesConectadosTest_PixelesEnCaminoLargoAdy8EstanConectadosAdy8_TestE10CreateTestEv
FN:466,_ZN7testing8internal15TestFactoryImplI73sonPixelesConectadosTest_PixelesEnCaminoLargoAdy4EstanConectadosAdy4_TestE10CreateTestEv
FN:466,_ZN7testing8internal15TestFactoryImplI59sonPixelesConectadosTest_PixelesIgualesEstanConectados_TestE10CreateTestEv
FN:466,_ZN7testing8internal15TestFactoryImplI69sonPixelesConectadosTest_PixelesConectadosPorUnPixelVerticalAdy4_TestE10CreateTestEv
FN:466,_ZN7testing8internal15TestFactoryImplI77sonPixelesConectadosTest_PixelesConectadosPorMuchosPixelesVerticalesAdy4_TestE10CreateTestEv
FN:466,_ZN7testing8internal15TestFactoryImplI68sonPixelesConectadosTest_PixelesEnHorizontalEstanConectadosAdy4_TestE10CreateTestEv
FN:466,_ZN7testing8internal15TestFactoryImplI86sonPixelesConectadosTest_PixelesEnHorizontalAlRevesSeparadosNoEstanConectadosAdy4_TestE10CreateTestEv
FN:466,_ZN7testing8internal15TestFactoryImplI62sonPixelesConectadosTest_PixelesEnAdy4EstanConectadosAdy8_TestE10CreateTestEv
FN:466,_ZN7testing8internal15TestFactoryImplI68sonPixelesConectadosTest_PixelesEnCaminoAdy8EstanConectadosAdy8_TestE10CreateTestEv
FN:466,_ZN7testing8internal15TestFactoryImplI77sonPixelesConectadosTest_PixelesEnVerticalSeparadosNoEstanConectadosAdy4_TestE10CreateTestEv
FN:466,_ZN7testing8internal15TestFactoryImplI68sonPixelesConectadosTest_PixelesEnDiagonalNoEstanConectadosAdy4_TestE10CreateTestEv
FN:466,_ZN7testing8internal15TestFactoryImplI75sonPixelesConectadosTest_PixelesEnCaminoLargoAdy8NoEstanConectadosAdy4_TestE10CreateTestEv
FN:466,_ZN7testing8internal15TestFactoryImplI66sonPixelesConectadosTest_PixelesEnDiagonalEstanConectadosAdy8_TestE10CreateTestEv
FN:466,_ZN7testing8internal15TestFactoryImplI79sonPixelesConectadosTest_PixelesEnHorizontalSeparadosNoEstanConectadosAdy4_TestE10CreateTestEv
FN:466,_ZN7testing8internal15TestFactoryImplI81sonPixelesConectadosTest_PixelesConectadosPorMuchosPixelesParaTodosLadosAdy4_TestE10CreateTestEv
FN:466,_ZN7testing8internal15TestFactoryImplI67sonPixelesConectadosTest_PixelesSeparadosNoEstanConectadosAdy8_TestE10CreateTestEv
FN:486,_ZN7testing8internal12CodeLocationD2Ev
FN:487,_ZN7testing8internal12CodeLocationC2ERKNSt7__cxx1112basic_stringIcSt11char_traitsIcESaIcEEEi
FNDA:0,_ZN7testing8internal15TestFactoryBaseD0Ev
FNDA:0,_ZN7testing8internal15TestFactoryBaseD2Ev
FNDA:0,_ZN7testing8internal15TestFactoryBaseC2Ev
FNDA:1,_ZN7testing8internal15TestFactoryImplI68sonPixelesConectadosTest_PixelesEnDiagonalNoEstanConectadosAdy4_TestED0Ev
FNDA:1,_ZN7testing8internal15TestFactoryImplI68sonPixelesConectadosTest_PixelesEnDiagonalNoEstanConectadosAdy4_TestED2Ev
FNDA:1,_ZN7testing8internal15TestFactoryImplI68sonPixelesConectadosTest_PixelesEnHorizontalEstanConectadosAdy4_TestED0Ev
FNDA:1,_ZN7testing8internal15TestFactoryImplI68sonPixelesConectadosTest_PixelesEnHorizontalEstanConectadosAdy4_TestED2Ev
FNDA:1,_ZN7testing8internal15TestFactoryImplI79sonPixelesConectadosTest_PixelesEnHorizontalSeparadosNoEstanConectadosAdy4_TestED0Ev
FNDA:1,_ZN7testing8internal15TestFactoryImplI79sonPixelesConectadosTest_PixelesEnHorizontalSeparadosNoEstanConectadosAdy4_TestED2Ev
FNDA:1,_ZN7testing8internal15TestFactoryImplI77sonPixelesConectadosTest_PixelesEnVerticalSeparadosNoEstanConectadosAdy4_TestED0Ev
FNDA:1,_ZN7testing8internal15TestFactoryImplI77sonPixelesConectadosTest_PixelesEnVerticalSeparadosNoEstanConectadosAdy4_TestED2Ev
FNDA:1,_ZN7testing8internal15TestFactoryImplI86sonPixelesConectadosTest_PixelesEnHorizontalAlRevesSeparadosNoEstanConectadosAdy4_TestED0Ev
FNDA:1,_ZN7testing8internal15TestFactoryImplI86sonPixelesConectadosTest_PixelesEnHorizontalAlRevesSeparadosNoEstanConectadosAdy4_TestED2Ev
FNDA:1,_ZN7testing8internal15TestFactoryImplI84sonPixelesConectadosTest_PixelesEnVerticalAlRevesSeparadosNoEstanConectadosAdy4_TestED0Ev
FNDA:1,_ZN7testing8internal15TestFactoryImplI84sonPixelesConectadosTest_PixelesEnVerticalAlRevesSeparadosNoEstanConectadosAdy4_TestED2Ev
FNDA:1,_ZN7testing8internal15TestFactoryImplI69sonPixelesConectadosTest_PixelesConectadosPorUnPixelVerticalAdy4_TestED0Ev
FNDA:1,_ZN7testing8internal15TestFactoryImplI69sonPixelesConectadosTest_PixelesConectadosPorUnPixelVerticalAdy4_TestED2Ev
FNDA:1,_ZN7testing8internal15TestFactoryImplI77sonPixelesConectadosTest_PixelesConectadosPorMuchosPixelesVerticalesAdy4_TestED0Ev
FNDA:1,_ZN7testing8internal15TestFactoryImplI77sonPixelesConectadosTest_PixelesConectadosPorMuchosPixelesVerticalesAdy4_TestED2Ev
FNDA:1,_ZN7testing8internal15TestFactoryImplI81sonPixelesConectadosTest_PixelesConectadosPorMuchosPixelesParaTodosLadosAdy4_TestED0Ev
FNDA:1,_ZN7testing8internal15TestFactoryImplI81sonPixelesConectadosTest_PixelesConectadosPorMuchosPixelesParaTodosLadosAdy4_TestED2Ev
FNDA:1,_ZN7testing8internal15TestFactoryImplI66sonPixelesConectadosTest_PixelesEnDiagonalEstanConectadosAdy8_TestED0Ev
FNDA:1,_ZN7testing8internal15TestFactoryImplI66sonPixelesConectadosTest_PixelesEnDiagonalEstanConectadosAdy8_TestED2Ev
FNDA:1,_ZN7testing8internal15TestFactoryImplI67sonPixelesConectadosTest_PixelesSeparadosNoEstanConectadosAdy8_TestED0Ev
FNDA:1,_ZN7testing8internal15TestFactoryImplI67sonPixelesConectadosTest_PixelesSeparadosNoEstanConectadosAdy8_TestED2Ev
FNDA:1,_ZN7testing8internal15TestFactoryImplI62sonPixelesConectadosTest_PixelesEnAdy4EstanConectadosAdy8_TestED0Ev
FNDA:1,_ZN7testing8internal15TestFactoryImplI62sonPixelesConectadosTest_PixelesEnAdy4EstanConectadosAdy8_TestED2Ev
FNDA:1,_ZN7testing8internal15TestFactoryImplI68sonPixelesConectadosTest_PixelesEnCaminoAdy4EstanConectadosAdy8_TestED0Ev
FNDA:1,_ZN7testing8internal15TestFactoryImplI68sonPixelesConectadosTest_PixelesEnCaminoAdy4EstanConectadosAdy8_TestED2Ev
FNDA:1,_ZN7testing8internal15TestFactoryImplI68sonPixelesConectadosTest_PixelesEnCaminoAdy8EstanConectadosAdy8_TestED0Ev
FNDA:1,_ZN7testing8internal15TestFactoryImplI68sonPixelesConectadosTest_PixelesEnCaminoAdy8EstanConectadosAdy8_TestED2Ev
FNDA:1,_ZN7testing8internal15TestFactoryImplI73sonPixelesConectadosTest_PixelesEnCaminoLargoAdy8EstanConectadosAdy8_TestED0Ev
FNDA:1,_ZN7testing8internal15TestFactoryImplI73sonPixelesConectadosTest_PixelesEnCaminoLargoAdy8EstanConectadosAdy8_TestED2Ev
FNDA:1,_ZN7testing8internal15TestFactoryImplI75sonPixelesConectadosTest_PixelesEnCaminoLargoAdy8NoEstanConectadosAdy4_TestED0Ev
FNDA:1,_ZN7testing8internal15TestFactoryImplI75sonPixelesConectadosTest_PixelesEnCaminoLargoAdy8NoEstanConectadosAdy4_TestED2Ev
FNDA:1,_ZN7testing8internal15TestFactoryImplI73sonPixelesConectadosTest_PixelesEnCaminoLargoAdy4EstanConectadosAdy4_TestED0Ev
FNDA:1,_ZN7testing8internal15TestFactoryImplI73sonPixelesConectadosTest_PixelesEnCaminoLargoAdy4EstanConectadosAdy4_TestED2Ev
FNDA:1,_ZN7testing8internal15TestFactoryImplI59sonPixelesConectadosTest_PixelesIgualesEstanConectados_TestED0Ev
FNDA:1,_ZN7testing8internal15TestFactoryImplI59sonPixelesConectadosTest_PixelesIgualesEstanConectados_TestED2Ev
FNDA:1,_ZN7testing8internal15TestFactoryImplI59sonPixelesConectadosTest_PixelesIgualesEstanConectados_TestEC2Ev
FNDA:1,_ZN7testing8internal15TestFactoryImplI73sonPixelesConectadosTest_PixelesEnCaminoLargoAdy4EstanConectadosAdy4_TestEC2Ev
FNDA:1,_ZN7testing8internal15TestFactoryImplI75sonPixelesConectadosTest_PixelesEnCaminoLargoAdy8NoEstanConectadosAdy4_TestEC2Ev
FNDA:1,_ZN7testing8internal15TestFactoryImplI73sonPixelesConectadosTest_PixelesEnCaminoLargoAdy8EstanConectadosAdy8_TestEC2Ev
FNDA:1,_ZN7testing8internal15TestFactoryImplI68sonPixelesConectadosTest_PixelesEnCaminoAdy8EstanConectadosAdy8_TestEC2Ev
FNDA:1,_ZN7testing8internal15TestFactoryImplI68sonPixelesConectadosTest_PixelesEnCaminoAdy4EstanConectadosAdy8_TestEC2Ev
FNDA:1,_ZN7testing8internal15TestFactoryImplI62sonPixelesConectadosTest_PixelesEnAdy4EstanConectadosAdy8_TestEC2Ev
FNDA:1,_ZN7testing8internal15TestFactoryImplI67sonPixelesConectadosTest_PixelesSeparadosNoEstanConectadosAdy8_TestEC2Ev
FNDA:1,_ZN7testing8internal15TestFactoryImplI66sonPixelesConectadosTest_PixelesEnDiagonalEstanConectadosAdy8_TestEC2Ev
FNDA:1,_ZN7testing8internal15TestFactoryImplI81sonPixelesConectadosTest_PixelesConectadosPorMuchosPixelesParaTodosLadosAdy4_TestEC2Ev
FNDA:1,_ZN7testing8internal15TestFactoryImplI77sonPixelesConectadosTest_PixelesConectadosPorMuchosPixelesVerticalesAdy4_TestEC2Ev
FNDA:1,_ZN7testing8internal15TestFactoryImplI69sonPixelesConectadosTest_PixelesConectadosPorUnPixelVerticalAdy4_TestEC2Ev
FNDA:1,_ZN7testing8internal15TestFactoryImplI84sonPixelesConectadosTest_PixelesEnVerticalAlRevesSeparadosNoEstanConectadosAdy4_TestEC2Ev
FNDA:1,_ZN7testing8internal15TestFactoryImplI86sonPixelesConectadosTest_PixelesEnHorizontalAlRevesSeparadosNoEstanConectadosAdy4_TestEC2Ev
FNDA:1,_ZN7testing8internal15TestFactoryImplI77sonPixelesConectadosTest_PixelesEnVerticalSeparadosNoEstanConectadosAdy4_TestEC2Ev
FNDA:1,_ZN7testing8internal15TestFactoryImplI79sonPixelesConectadosTest_PixelesEnHorizontalSeparadosNoEstanConectadosAdy4_TestEC2Ev
FNDA:1,_ZN7testing8internal15TestFactoryImplI68sonPixelesConectadosTest_PixelesEnHorizontalEstanConectadosAdy4_TestEC2Ev
FNDA:1,_ZN7testing8internal15TestFactoryImplI68sonPixelesConectadosTest_PixelesEnDiagonalNoEstanConectadosAdy4_TestEC2Ev
FNDA:1,_ZN7testing8internal15TestFactoryImplI68sonPixelesConectadosTest_PixelesEnDiagonalNoEstanConectadosAdy4_TestE10CreateTestEv
FNDA:1,_ZN7testing8internal15TestFactoryImplI68sonPixelesConectadosTest_PixelesEnHorizontalEstanConectadosAdy4_TestE10CreateTestEv
FNDA:1,_ZN7testing8internal15TestFactoryImplI79sonPixelesConectadosTest_PixelesEnHorizontalSeparadosNoEstanConectadosAdy4_TestE10CreateTestEv
FNDA:1,_ZN7testing8internal15TestFactoryImplI77sonPixelesConectadosTest_PixelesEnVerticalSeparadosNoEstanConectadosAdy4_TestE10CreateTestEv
FNDA:1,_ZN7testing8internal15TestFactoryImplI86sonPixelesConectadosTest_PixelesEnHorizontalAlRevesSeparadosNoEstanConectadosAdy4_TestE10CreateTestEv
FNDA:1,_ZN7testing8internal15TestFactoryImplI84sonPixelesConectadosTest_PixelesEnVerticalAlRevesSeparadosNoEstanConectadosAdy4_TestE10CreateTestEv
FNDA:1,_ZN7testing8internal15TestFactoryImplI69sonPixelesConectadosTest_PixelesConectadosPorUnPixelVerticalAdy4_TestE10CreateTestEv
FNDA:1,_ZN7testing8internal15TestFactoryImplI77sonPixelesConectadosTest_PixelesConectadosPorMuchosPixelesVerticalesAdy4_TestE10CreateTestEv
FNDA:1,_ZN7testing8internal15TestFactoryImplI81sonPixelesConectadosTest_PixelesConectadosPorMuchosPixelesParaTodosLadosAdy4_TestE10CreateTestEv
FNDA:1,_ZN7testing8internal15TestFactoryImplI66sonPixelesConectadosTest_PixelesEnDiagonalEstanConectadosAdy8_TestE10CreateTestEv
FNDA:1,_ZN7testing8internal15TestFactoryImplI67sonPixelesConectadosTest_PixelesSeparadosNoEstanConectadosAdy8_TestE10CreateTestEv
FNDA:1,_ZN7testing8internal15TestFactoryImplI62sonPixelesConectadosTest_PixelesEnAdy4EstanConectadosAdy8_TestE10CreateTestEv
FNDA:1,_ZN7testing8internal15TestFactoryImplI68sonPixelesConectadosTest_PixelesEnCaminoAdy4EstanConectadosAdy8_TestE10CreateTestEv
FNDA:1,_ZN7testing8internal15TestFactoryImplI68sonPixelesConectadosTest_PixelesEnCaminoAdy8EstanConectadosAdy8_TestE10CreateTestEv
FNDA:1,_ZN7testing8internal15TestFactoryImplI73sonPixelesConectadosTest_PixelesEnCaminoLargoAdy8EstanConectadosAdy8_TestE10CreateTestEv
FNDA:1,_ZN7testing8internal15TestFactoryImplI75sonPixelesConectadosTest_PixelesEnCaminoLargoAdy8NoEstanConectadosAdy4_TestE10CreateTestEv
FNDA:1,_ZN7testing8internal15TestFactoryImplI73sonPixelesConectadosTest_PixelesEnCaminoLargoAdy4EstanConectadosAdy4_TestE10CreateTestEv
FNDA:1,_ZN7testing8internal15TestFactoryImplI59sonPixelesConectadosTest_PixelesIgualesEstanConectados_TestE10CreateTestEv
FNDA:0,_ZN7testing8internal12CodeLocationD2Ev
FNDA:0,_ZN7testing8internal12CodeLocationC2ERKNSt7__cxx1112basic_stringIcSt11char_traitsIcESaIcEEEi
FNF:77
FNH:72
DA:448,0
DA:455,0
DA:464,54
DA:466,18
DA:486,0
DA:487,0
DA:488,0
LF:7
LH:2
end_of_record
SF:/home/msaied/Documents/TPI-morfologia-matematica/lib/googletest-master/googletest/include/gtest/internal/gtest-port.h
FN:1184,_ZN7testing8internal10scoped_ptrINSt7__cxx1112basic_stringIcSt11char_traitsIcESaIcEEEEC2EPS7_
FN:1185,_ZN7testing8internal10scoped_ptrINSt7__cxx1118basic_stringstreamIcSt11char_traitsIcESaIcEEEED2Ev
FN:1185,_ZN7testing8internal10scoped_ptrINSt7__cxx1112basic_stringIcSt11char_traitsIcESaIcEEEED2Ev
FN:1197,_ZN7testing8internal10scoped_ptrINSt7__cxx1118basic_stringstreamIcSt11char_traitsIcESaIcEEEE5resetEPS7_
FN:1197,_ZN7testing8internal10scoped_ptrINSt7__cxx1112basic_stringIcSt11char_traitsIcESaIcEEEE5resetEPS7_
FNDA:0,_ZN7testing8internal10scoped_ptrINSt7__cxx1112basic_stringIcSt11char_traitsIcESaIcEEEEC2EPS7_
FNDA:0,_ZN7testing8internal10scoped_ptrINSt7__cxx1112basic_stringIcSt11char_traitsIcESaIcEEEED2Ev
FNDA:0,_ZN7testing8internal10scoped_ptrINSt7__cxx1118basic_stringstreamIcSt11char_traitsIcESaIcEEEED2Ev
FNDA:0,_ZN7testing8internal10scoped_ptrINSt7__cxx1118basic_stringstreamIcSt11char_traitsIcESaIcEEEE5resetEPS7_
FNDA:0,_ZN7testing8internal10scoped_ptrINSt7__cxx1112basic_stringIcSt11char_traitsIcESaIcEEEE5resetEPS7_
FNF:5
FNH:0
DA:1184,0
DA:1185,0
DA:1197,0
DA:1198,0
DA:1199,0
DA:1200,0
DA:1202,0
DA:1204,0
LF:8
LH:0
end_of_record
SF:/home/msaied/Documents/TPI-morfologia-matematica/tests/ej2TEST.cpp
FN:4,_ZN68sonPixelesConectadosTest_PixelesEnDiagonalNoEstanConectadosAdy4_TestC2Ev
FN:4,_ZN68sonPixelesConectadosTest_PixelesEnDiagonalNoEstanConectadosAdy4_TestD2Ev
FN:4,_ZN68sonPixelesConectadosTest_PixelesEnDiagonalNoEstanConectadosAdy4_Test8TestBodyEv
FN:4,_ZN68sonPixelesConectadosTest_PixelesEnDiagonalNoEstanConectadosAdy4_TestD0Ev
FN:14,_ZN68sonPixelesConectadosTest_PixelesEnHorizontalEstanConectadosAdy4_Test8TestBodyEv
FN:14,_ZN68sonPixelesConectadosTest_PixelesEnHorizontalEstanConectadosAdy4_TestC2Ev
FN:14,_ZN68sonPixelesConectadosTest_PixelesEnHorizontalEstanConectadosAdy4_TestD0Ev
FN:14,_ZN68sonPixelesConectadosTest_PixelesEnHorizontalEstanConectadosAdy4_TestD2Ev
FN:21,_ZN79sonPixelesConectadosTest_PixelesEnHorizontalSeparadosNoEstanConectadosAdy4_TestC2Ev
FN:21,_ZN79sonPixelesConectadosTest_PixelesEnHorizontalSeparadosNoEstanConectadosAdy4_TestD2Ev
FN:21,_ZN79sonPixelesConectadosTest_PixelesEnHorizontalSeparadosNoEstanConectadosAdy4_Test8TestBodyEv
FN:21,_ZN79sonPixelesConectadosTest_PixelesEnHorizontalSeparadosNoEstanConectadosAdy4_TestD0Ev
FN:28,_ZN77sonPixelesConectadosTest_PixelesEnVerticalSeparadosNoEstanConectadosAdy4_TestC2Ev
FN:28,_ZN77sonPixelesConectadosTest_PixelesEnVerticalSeparadosNoEstanConectadosAdy4_TestD0Ev
FN:28,_ZN77sonPixelesConectadosTest_PixelesEnVerticalSeparadosNoEstanConectadosAdy4_TestD2Ev
FN:28,_ZN77sonPixelesConectadosTest_PixelesEnVerticalSeparadosNoEstanConectadosAdy4_Test8TestBodyEv
FN:35,_ZN86sonPixelesConectadosTest_PixelesEnHorizontalAlRevesSeparadosNoEstanConectadosAdy4_TestD2Ev
FN:35,_ZN86sonPixelesConectadosTest_PixelesEnHorizontalAlRevesSeparadosNoEstanConectadosAdy4_TestD0Ev
FN:35,_ZN86sonPixelesConectadosTest_PixelesEnHorizontalAlRevesSeparadosNoEstanConectadosAdy4_Test8TestBodyEv
FN:35,_ZN86sonPixelesConectadosTest_PixelesEnHorizontalAlRevesSeparadosNoEstanConectadosAdy4_TestC2Ev
FN:42,_ZN84sonPixelesConectadosTest_PixelesEnVerticalAlRevesSeparadosNoEstanConectadosAdy4_TestD2Ev
FN:42,_ZN84sonPixelesConectadosTest_PixelesEnVerticalAlRevesSeparadosNoEstanConectadosAdy4_Test8TestBodyEv
FN:42,_ZN84sonPixelesConectadosTest_PixelesEnVerticalAlRevesSeparadosNoEstanConectadosAdy4_TestD0Ev
FN:42,_ZN84sonPixelesConectadosTest_PixelesEnVerticalAlRevesSeparadosNoEstanConectadosAdy4_TestC2Ev
FN:49,_ZN69sonPixelesConectadosTest_PixelesConectadosPorUnPixelVerticalAdy4_TestD0Ev
FN:49,_ZN69sonPixelesConectadosTest_PixelesConectadosPorUnPixelVerticalAdy4_TestD2Ev
FN:49,_ZN69sonPixelesConectadosTest_PixelesConectadosPorUnPixelVerticalAdy4_Test8TestBodyEv
FN:49,_ZN69sonPixelesConectadosTest_PixelesConectadosPorUnPixelVerticalAdy4_TestC2Ev
FN:56,_ZN77sonPixelesConectadosTest_PixelesConectadosPorMuchosPixelesVerticalesAdy4_TestD2Ev
FN:56,_ZN77sonPixelesConectadosTest_PixelesConectadosPorMuchosPixelesVerticalesAdy4_TestD0Ev
FN:56,_ZN77sonPixelesConectadosTest_PixelesConectadosPorMuchosPixelesVerticalesAdy4_Test8TestBodyEv
FN:56,_ZN77sonPixelesConectadosTest_PixelesConectadosPorMuchosPixelesVerticalesAdy4_TestC2Ev
FN:63,_ZN81sonPixelesConectadosTest_PixelesConectadosPorMuchosPixelesParaTodosLadosAdy4_Test8TestBodyEv
FN:63,_ZN81sonPixelesConectadosTest_PixelesConectadosPorMuchosPixelesParaTodosLadosAdy4_TestD2Ev
FN:63,_ZN81sonPixelesConectadosTest_PixelesConectadosPorMuchosPixelesParaTodosLadosAdy4_TestC2Ev
FN:63,_ZN81sonPixelesConectadosTest_PixelesConectadosPorMuchosPixelesParaTodosLadosAdy4_TestD0Ev
FN:76,_ZN66sonPixelesConectadosTest_PixelesEnDiagonalEstanConectadosAdy8_TestD0Ev
FN:76,_ZN66sonPixelesConectadosTest_PixelesEnDiagonalEstanConectadosAdy8_Test8TestBodyEv
FN:76,_ZN66sonPixelesConectadosTest_PixelesEnDiagonalEstanConectadosAdy8_TestC2Ev
FN:76,_ZN66sonPixelesConectadosTest_PixelesEnDiagonalEstanConectadosAdy8_TestD2Ev
FN:86,_ZN67sonPixelesConectadosTest_PixelesSeparadosNoEstanConectadosAdy8_TestD0Ev
FN:86,_ZN67sonPixelesConectadosTest_PixelesSeparadosNoEstanConectadosAdy8_TestD2Ev
FN:86,_ZN67sonPixelesConectadosTest_PixelesSeparadosNoEstanConectadosAdy8_Test8TestBodyEv
FN:86,_ZN67sonPixelesConectadosTest_PixelesSeparadosNoEstanConectadosAdy8_TestC2Ev
FN:97,_ZN62sonPixelesConectadosTest_PixelesEnAdy4EstanConectadosAdy8_Test8TestBodyEv
FN:97,_ZN62sonPixelesConectadosTest_PixelesEnAdy4EstanConectadosAdy8_TestD0Ev
FN:97,_ZN62sonPixelesConectadosTest_PixelesEnAdy4EstanConectadosAdy8_TestD2Ev
FN:97,_ZN62sonPixelesConectadosTest_PixelesEnAdy4EstanConectadosAdy8_TestC2Ev
FN:106,_ZN68sonPixelesConectadosTest_PixelesEnCaminoAdy4EstanConectadosAdy8_TestD0Ev
FN:106,_ZN68sonPixelesConectadosTest_PixelesEnCaminoAdy4EstanConectadosAdy8_TestD2Ev
FN:106,_ZN68sonPixelesConectadosTest_PixelesEnCaminoAdy4EstanConectadosAdy8_TestC2Ev
FN:106,_ZN68sonPixelesConectadosTest_PixelesEnCaminoAdy4EstanConectadosAdy8_Test8TestBodyEv
FN:117,_ZN68sonPixelesConectadosTest_PixelesEnCaminoAdy8EstanConectadosAdy8_TestC2Ev
FN:117,_ZN68sonPixelesConectadosTest_PixelesEnCaminoAdy8EstanConectadosAdy8_TestD2Ev
FN:117,_ZN68sonPixelesConectadosTest_PixelesEnCaminoAdy8EstanConectadosAdy8_TestD0Ev
FN:117,_ZN68sonPixelesConectadosTest_PixelesEnCaminoAdy8EstanConectadosAdy8_Test8TestBodyEv
FN:128,_ZN73sonPixelesConectadosTest_PixelesEnCaminoLargoAdy8EstanConectadosAdy8_TestC2Ev
FN:128,_ZN73sonPixelesConectadosTest_PixelesEnCaminoLargoAdy8EstanConectadosAdy8_Test8TestBodyEv
FN:128,_ZN73sonPixelesConectadosTest_PixelesEnCaminoLargoAdy8EstanConectadosAdy8_TestD2Ev
FN:128,_ZN73sonPixelesConectadosTest_PixelesEnCaminoLargoAdy8EstanConectadosAdy8_TestD0Ev
FN:141,_ZN75sonPixelesConectadosTest_PixelesEnCaminoLargoAdy8NoEstanConectadosAdy4_TestD2Ev
FN:141,_ZN75sonPixelesConectadosTest_PixelesEnCaminoLargoAdy8NoEstanConectadosAdy4_TestD0Ev
FN:141,_ZN75sonPixelesConectadosTest_PixelesEnCaminoLargoAdy8NoEstanConectadosAdy4_Test8TestBodyEv
FN:141,_ZN75sonPixelesConectadosTest_PixelesEnCaminoLargoAdy8NoEstanConectadosAdy4_TestC2Ev
FN:154,_ZN73sonPixelesConectadosTest_PixelesEnCaminoLargoAdy4EstanConectadosAdy4_TestD0Ev
FN:154,_ZN73sonPixelesConectadosTest_PixelesEnCaminoLargoAdy4EstanConectadosAdy4_Test8TestBodyEv
FN:154,_ZN73sonPixelesConectadosTest_PixelesEnCaminoLargoAdy4EstanConectadosAdy4_TestC2Ev
FN:154,_ZN73sonPixelesConectadosTest_PixelesEnCaminoLargoAdy4EstanConectadosAdy4_TestD2Ev
FN:167,_ZN59sonPixelesConectadosTest_PixelesIgualesEstanConectados_TestD2Ev
FN:167,_ZN59sonPixelesConectadosTest_PixelesIgualesEstanConectados_TestC2Ev
FN:167,_ZN59sonPixelesConectadosTest_PixelesIgualesEstanConectados_TestD0Ev
FN:167,_ZN59sonPixelesConectadosTest_PixelesIgualesEstanConectados_Test8TestBodyEv
FN:178,_GLOBAL__sub_I__ZN68sonPixelesConectadosTest_PixelesEnDiagonalNoEstanConectadosAdy4_Test10test_info_E
FN:178,_Z41__static_initialization_and_destruction_0ii
FNDA:1,_ZN68sonPixelesConectadosTest_PixelesEnDiagonalNoEstanConectadosAdy4_TestD0Ev
FNDA:1,_ZN68sonPixelesConectadosTest_PixelesEnDiagonalNoEstanConectadosAdy4_TestD2Ev
FNDA:1,_ZN68sonPixelesConectadosTest_PixelesEnDiagonalNoEstanConectadosAdy4_Test8TestBodyEv
FNDA:1,_ZN68sonPixelesConectadosTest_PixelesEnDiagonalNoEstanConectadosAdy4_TestC2Ev
FNDA:1,_ZN68sonPixelesConectadosTest_PixelesEnHorizontalEstanConectadosAdy4_TestD0Ev
FNDA:1,_ZN68sonPixelesConectadosTest_PixelesEnHorizontalEstanConectadosAdy4_TestD2Ev
FNDA:1,_ZN68sonPixelesConectadosTest_PixelesEnHorizontalEstanConectadosAdy4_Test8TestBodyEv
FNDA:1,_ZN68sonPixelesConectadosTest_PixelesEnHorizontalEstanConectadosAdy4_TestC2Ev
FNDA:1,_ZN79sonPixelesConectadosTest_PixelesEnHorizontalSeparadosNoEstanConectadosAdy4_TestD0Ev
FNDA:1,_ZN79sonPixelesConectadosTest_PixelesEnHorizontalSeparadosNoEstanConectadosAdy4_TestD2Ev
FNDA:1,_ZN79sonPixelesConectadosTest_PixelesEnHorizontalSeparadosNoEstanConectadosAdy4_Test8TestBodyEv
FNDA:1,_ZN79sonPixelesConectadosTest_PixelesEnHorizontalSeparadosNoEstanConectadosAdy4_TestC2Ev
FNDA:1,_ZN77sonPixelesConectadosTest_PixelesEnVerticalSeparadosNoEstanConectadosAdy4_TestD0Ev
FNDA:1,_ZN77sonPixelesConectadosTest_PixelesEnVerticalSeparadosNoEstanConectadosAdy4_TestD2Ev
FNDA:1,_ZN77sonPixelesConectadosTest_PixelesEnVerticalSeparadosNoEstanConectadosAdy4_Test8TestBodyEv
FNDA:1,_ZN77sonPixelesConectadosTest_PixelesEnVerticalSeparadosNoEstanConectadosAdy4_TestC2Ev
FNDA:1,_ZN86sonPixelesConectadosTest_PixelesEnHorizontalAlRevesSeparadosNoEstanConectadosAdy4_TestD0Ev
FNDA:1,_ZN86sonPixelesConectadosTest_PixelesEnHorizontalAlRevesSeparadosNoEstanConectadosAdy4_TestD2Ev
FNDA:1,_ZN86sonPixelesConectadosTest_PixelesEnHorizontalAlRevesSeparadosNoEstanConectadosAdy4_Test8TestBodyEv
FNDA:1,_ZN86sonPixelesConectadosTest_PixelesEnHorizontalAlRevesSeparadosNoEstanConectadosAdy4_TestC2Ev
FNDA:1,_ZN84sonPixelesConectadosTest_PixelesEnVerticalAlRevesSeparadosNoEstanConectadosAdy4_TestD0Ev
FNDA:1,_ZN84sonPixelesConectadosTest_PixelesEnVerticalAlRevesSeparadosNoEstanConectadosAdy4_TestD2Ev
FNDA:1,_ZN84sonPixelesConectadosTest_PixelesEnVerticalAlRevesSeparadosNoEstanConectadosAdy4_Test8TestBodyEv
FNDA:1,_ZN84sonPixelesConectadosTest_PixelesEnVerticalAlRevesSeparadosNoEstanConectadosAdy4_TestC2Ev
FNDA:1,_ZN69sonPixelesConectadosTest_PixelesConectadosPorUnPixelVerticalAdy4_TestD0Ev
FNDA:1,_ZN69sonPixelesConectadosTest_PixelesConectadosPorUnPixelVerticalAdy4_TestD2Ev
FNDA:1,_ZN69sonPixelesConectadosTest_PixelesConectadosPorUnPixelVerticalAdy4_Test8TestBodyEv
FNDA:1,_ZN69sonPixelesConectadosTest_PixelesConectadosPorUnPixelVerticalAdy4_TestC2Ev
FNDA:1,_ZN77sonPixelesConectadosTest_PixelesConectadosPorMuchosPixelesVerticalesAdy4_TestD0Ev
FNDA:1,_ZN77sonPixelesConectadosTest_PixelesConectadosPorMuchosPixelesVerticalesAdy4_TestD2Ev
FNDA:1,_ZN77sonPixelesConectadosTest_PixelesConectadosPorMuchosPixelesVerticalesAdy4_Test8TestBodyEv
FNDA:1,_ZN77sonPixelesConectadosTest_PixelesConectadosPorMuchosPixelesVerticalesAdy4_TestC2Ev
FNDA:1,_ZN81sonPixelesConectadosTest_PixelesConectadosPorMuchosPixelesParaTodosLadosAdy4_TestD0Ev
FNDA:1,_ZN81sonPixelesConectadosTest_PixelesConectadosPorMuchosPixelesParaTodosLadosAdy4_TestD2Ev
FNDA:1,_ZN81sonPixelesConectadosTest_PixelesConectadosPorMuchosPixelesParaTodosLadosAdy4_Test8TestBodyEv
FNDA:1,_ZN81sonPixelesConectadosTest_PixelesConectadosPorMuchosPixelesParaTodosLadosAdy4_TestC2Ev
FNDA:1,_ZN66sonPixelesConectadosTest_PixelesEnDiagonalEstanConectadosAdy8_TestD0Ev
FNDA:1,_ZN66sonPixelesConectadosTest_PixelesEnDiagonalEstanConectadosAdy8_TestD2Ev
FNDA:1,_ZN66sonPixelesConectadosTest_PixelesEnDiagonalEstanConectadosAdy8_Test8TestBodyEv
FNDA:1,_ZN66sonPixelesConectadosTest_PixelesEnDiagonalEstanConectadosAdy8_TestC2Ev
FNDA:1,_ZN67sonPixelesConectadosTest_PixelesSeparadosNoEstanConectadosAdy8_TestD0Ev
FNDA:1,_ZN67sonPixelesConectadosTest_PixelesSeparadosNoEstanConectadosAdy8_TestD2Ev
FNDA:1,_ZN67sonPixelesConectadosTest_PixelesSeparadosNoEstanConectadosAdy8_Test8TestBodyEv
FNDA:1,_ZN67sonPixelesConectadosTest_PixelesSeparadosNoEstanConectadosAdy8_TestC2Ev
FNDA:1,_ZN62sonPixelesConectadosTest_PixelesEnAdy4EstanConectadosAdy8_TestD0Ev
FNDA:1,_ZN62sonPixelesConectadosTest_PixelesEnAdy4EstanConectadosAdy8_TestD2Ev
FNDA:1,_ZN62sonPixelesConectadosTest_PixelesEnAdy4EstanConectadosAdy8_Test8TestBodyEv
FNDA:1,_ZN62sonPixelesConectadosTest_PixelesEnAdy4EstanConectadosAdy8_TestC2Ev
FNDA:1,_ZN68sonPixelesConectadosTest_PixelesEnCaminoAdy4EstanConectadosAdy8_TestD0Ev
FNDA:1,_ZN68sonPixelesConectadosTest_PixelesEnCaminoAdy4EstanConectadosAdy8_TestD2Ev
FNDA:1,_ZN68sonPixelesConectadosTest_PixelesEnCaminoAdy4EstanConectadosAdy8_Test8TestBodyEv
FNDA:1,_ZN68sonPixelesConectadosTest_PixelesEnCaminoAdy4EstanConectadosAdy8_TestC2Ev
FNDA:1,_ZN68sonPixelesConectadosTest_PixelesEnCaminoAdy8EstanConectadosAdy8_TestD0Ev
FNDA:1,_ZN68sonPixelesConectadosTest_PixelesEnCaminoAdy8EstanConectadosAdy8_TestD2Ev
FNDA:1,_ZN68sonPixelesConectadosTest_PixelesEnCaminoAdy8EstanConectadosAdy8_Test8TestBodyEv
FNDA:1,_ZN68sonPixelesConectadosTest_PixelesEnCaminoAdy8EstanConectadosAdy8_TestC2Ev
FNDA:1,_ZN73sonPixelesConectadosTest_PixelesEnCaminoLargoAdy8EstanConectadosAdy8_TestD0Ev
FNDA:1,_ZN73sonPixelesConectadosTest_PixelesEnCaminoLargoAdy8EstanConectadosAdy8_TestD2Ev
FNDA:1,_ZN73sonPixelesConectadosTest_PixelesEnCaminoLargoAdy8EstanConectadosAdy8_Test8TestBodyEv
FNDA:1,_ZN73sonPixelesConectadosTest_PixelesEnCaminoLargoAdy8EstanConectadosAdy8_TestC2Ev
FNDA:1,_ZN75sonPixelesConectadosTest_PixelesEnCaminoLargoAdy8NoEstanConectadosAdy4_TestD0Ev
FNDA:1,_ZN75sonPixelesConectadosTest_PixelesEnCaminoLargoAdy8NoEstanConectadosAdy4_TestD2Ev
FNDA:1,_ZN75sonPixelesConectadosTest_PixelesEnCaminoLargoAdy8NoEstanConectadosAdy4_Test8TestBodyEv
FNDA:1,_ZN75sonPixelesConectadosTest_PixelesEnCaminoLargoAdy8NoEstanConectadosAdy4_TestC2Ev
FNDA:1,_ZN73sonPixelesConectadosTest_PixelesEnCaminoLargoAdy4EstanConectadosAdy4_TestD0Ev
FNDA:1,_ZN73sonPixelesConectadosTest_PixelesEnCaminoLargoAdy4EstanConectadosAdy4_TestD2Ev
FNDA:1,_ZN73sonPixelesConectadosTest_PixelesEnCaminoLargoAdy4EstanConectadosAdy4_Test8TestBodyEv
FNDA:1,_ZN73sonPixelesConectadosTest_PixelesEnCaminoLargoAdy4EstanConectadosAdy4_TestC2Ev
FNDA:1,_ZN59sonPixelesConectadosTest_PixelesIgualesEstanConectados_TestD0Ev
FNDA:1,_ZN59sonPixelesConectadosTest_PixelesIgualesEstanConectados_TestD2Ev
FNDA:1,_ZN59sonPixelesConectadosTest_PixelesIgualesEstanConectados_Test8TestBodyEv
FNDA:1,_ZN59sonPixelesConectadosTest_PixelesIgualesEstanConectados_TestC2Ev
FNDA:1,_GLOBAL__sub_I__ZN68sonPixelesConectadosTest_PixelesEnDiagonalNoEstanConectadosAdy4_Test10test_info_E
FNDA:1,_Z41__static_initialization_and_destruction_0ii
FNF:74
FNH:74
DA:4,5
DA:8,2
DA:9,2
DA:10,2
DA:11,1
DA:12,1
DA:14,5
DA:15,2
DA:16,2
DA:17,2
DA:18,1
DA:19,1
DA:21,5
DA:22,2
DA:23,2
DA:24,2
DA:25,1
DA:26,1
DA:28,5
DA:29,2
DA:30,2
DA:31,2
DA:32,1
DA:33,1
DA:35,5
DA:36,2
DA:37,2
DA:38,2
DA:39,1
DA:40,1
DA:42,5
DA:43,2
DA:44,2
DA:45,2
DA:46,1
DA:47,1
DA:49,5
DA:50,2
DA:51,2
DA:52,2
DA:53,1
DA:54,1
DA:56,5
DA:57,2
DA:58,2
DA:59,2
DA:60,1
DA:61,1
DA:63,5
DA:70,2
DA:71,2
DA:72,2
DA:73,1
DA:74,1
DA:76,5
DA:80,2
DA:81,2
DA:82,2
DA:83,1
DA:84,1
DA:86,5
DA:91,2
DA:92,2
DA:93,2
DA:94,1
DA:95,1
DA:97,5
DA:100,2
DA:101,2
DA:102,2
DA:103,1
DA:104,1
DA:106,5
DA:111,2
DA:112,2
DA:113,2
DA:114,1
DA:115,1
DA:117,5
DA:122,2
DA:123,2
DA:124,2
DA:125,1
DA:126,1
DA:128,5
DA:135,2
DA:136,2
DA:137,2
DA:138,1
DA:139,1
DA:141,5
DA:148,2
DA:149,2
DA:150,2
DA:151,1
DA:152,1
DA:154,5
DA:161,2
DA:162,2
DA:163,2
DA:164,1
DA:165,1
DA:167,5
DA:174,2
DA:175,2
DA:176,2
DA:177,1
DA:178,4
LF:108
LH:108
end_of_record
SF:/usr/include/c++/7/bits/alloc_traits.h
FN:435,_ZNSt16allocator_traitsISaIiEE8allocateERS0_m
FN:435,_ZNSt16allocator_traitsISaISt6vectorIiSaIiEEEE8allocateERS3_m
FN:461,_ZNSt16allocator_traitsISaISt6vectorIiSaIiEEEE10deallocateERS3_PS2_m
FN:461,_ZNSt16allocator_traitsISaIiEE10deallocateERS0_Pim
FN:504,_ZNSt16allocator_traitsISaIiEE37select_on_container_copy_constructionERKS0_
FNDA:0,_ZNSt16allocator_traitsISaISt6vectorIiSaIiEEEE8allocateERS3_m
FNDA:0,_ZNSt16allocator_traitsISaIiEE8allocateERS0_m
FNDA:0,_ZNSt16allocator_traitsISaISt6vectorIiSaIiEEEE10deallocateERS3_PS2_m
FNDA:0,_ZNSt16allocator_traitsISaIiEE10deallocateERS0_Pim
FNDA:0,_ZNSt16allocator_traitsISaIiEE37select_on_container_copy_constructionERKS0_
FNF:5
FNH:0
DA:435,0
DA:436,0
DA:461,0
DA:462,0
DA:504,0
DA:505,0
LF:6
LH:0
end_of_record
SF:/usr/include/c++/7/bits/allocator.h
FN:131,_ZNSaISt6vectorIiSaIiEEEC2Ev
FN:131,_ZNSaIiEC2Ev
FN:133,_ZNSaISt6vectorIiSaIiEEEC2ERKS2_
FN:133,_ZNSaIiEC2ERKS_
FN:139,_ZNSaISt6vectorIiSaIiEEED2Ev
FN:139,_ZNSaIiED2Ev
FNDA:0,_ZNSaISt6vectorIiSaIiEEEC2Ev
FNDA:0,_ZNSaIiEC2Ev
FNDA:0,_ZNSaISt6vectorIiSaIiEEEC2ERKS2_
FNDA:0,_ZNSaIiEC2ERKS_
FNDA:0,_ZNSaISt6vectorIiSaIiEEED2Ev
FNDA:0,_ZNSaIiED2Ev
FNF:6
FNH:0
DA:131,0
DA:133,0
DA:134,0
DA:139,0
LF:4
LH:0
end_of_record
SF:/usr/include/c++/7/bits/cpp_type_traits.h
FN:408,_ZSt12__miter_baseIN9__gnu_cxx17__normal_iteratorIPKiSt6vectorIiSaIiEEEEET_S8_
FN:408,_ZSt12__miter_baseIPKiET_S2_
FNDA:0,_ZSt12__miter_baseIN9__gnu_cxx17__normal_iteratorIPKiSt6vectorIiSaIiEEEEET_S8_
FNDA:0,_ZSt12__miter_baseIPKiET_S2_
FNF:2
FNH:0
DA:408,0
DA:409,0
LF:2
LH:0
end_of_record
SF:/usr/include/c++/7/bits/move.h
FN:47,_ZSt11__addressofISt6vectorIiSaIiEEEPT_RS3_
FN:73,_ZSt7forwardIRKSt6vectorIiSaIiEEEOT_RNSt16remove_referenceIS5_E4typeE
FNDA:0,_ZSt11__addressofISt6vectorIiSaIiEEEPT_RS3_
FNDA:0,_ZSt7forwardIRKSt6vectorIiSaIiEEEOT_RNSt16remove_referenceIS5_E4typeE
FNF:2
FNH:0
DA:47,0
DA:48,0
DA:73,0
DA:74,0
LF:4
LH:0
end_of_record
SF:/usr/include/c++/7/bits/stl_algobase.h
FN:277,_ZSt12__niter_baseIPiET_S1_
FN:277,_ZSt12__niter_baseIPKiET_S2_
FN:357,_ZNSt11__copy_moveILb0ELb1ESt26random_access_iterator_tagE8__copy_mIiEEPT_PKS3_S6_S4_
FN:375,_ZSt13__copy_move_aILb0EPKiPiET1_T0_S4_S3_
FN:420,_ZSt14__copy_move_a2ILb0EN9__gnu_cxx17__normal_iteratorIPKiSt6vectorIiSaIiEEEEPiET1_T0_SA_S9_
FN:420,_ZSt14__copy_move_a2ILb0EPKiPiET1_T0_S4_S3_
FN:446,_ZSt4copyIN9__gnu_cxx17__normal_iteratorIPKiSt6vectorIiSaIiEEEEPiET0_T_SA_S9_
FN:446,_ZSt4copyIPKiPiET0_T_S4_S3_
FNDA:0,_ZSt12__niter_baseIPiET_S1_
FNDA:0,_ZSt12__niter_baseIPKiET_S2_
FNDA:0,_ZNSt11__copy_moveILb0ELb1ESt26random_access_iterator_tagE8__copy_mIiEEPT_PKS3_S6_S4_
FNDA:0,_ZSt13__copy_move_aILb0EPKiPiET1_T0_S4_S3_
FNDA:0,_ZSt14__copy_move_a2ILb0EN9__gnu_cxx17__normal_iteratorIPKiSt6vectorIiSaIiEEEEPiET1_T0_SA_S9_
FNDA:0,_ZSt14__copy_move_a2ILb0EPKiPiET1_T0_S4_S3_
FNDA:0,_ZSt4copyIN9__gnu_cxx17__normal_iteratorIPKiSt6vectorIiSaIiEEEEPiET0_T_SA_S9_
FNDA:0,_ZSt4copyIPKiPiET0_T_S4_S3_
FNF:8
FNH:0
DA:277,0
DA:278,0
DA:357,0
DA:366,0
DA:367,0
DA:368,0
DA:369,0
DA:375,0
DA:380,0
DA:386,0
DA:420,0
DA:422,0
DA:424,0
DA:446,0
DA:455,0
DA:456,0
LF:16
LH:0
end_of_record
SF:/usr/include/c++/7/bits/stl_construct.h
FN:74,_ZSt10_ConstructISt6vectorIiSaIiEEJRKS2_EEvPT_DpOT0_
FN:97,_ZSt8_DestroyISt6vectorIiSaIiEEEvPT_
FN:105,_ZNSt12_Destroy_auxILb0EE9__destroyIPSt6vectorIiSaIiEEEEvT_S6_
FN:117,_ZNSt12_Destroy_auxILb1EE9__destroyIPiEEvT_S3_
FN:127,_ZSt8_DestroyIPSt6vectorIiSaIiEEEvT_S4_
FN:127,_ZSt8_DestroyIPiEvT_S1_
FN:203,_ZSt8_DestroyIPiiEvT_S1_RSaIT0_E
FN:203,_ZSt8_DestroyIPSt6vectorIiSaIiEES2_EvT_S4_RSaIT0_E
FNDA:0,_ZSt10_ConstructISt6vectorIiSaIiEEJRKS2_EEvPT_DpOT0_
FNDA:0,_ZSt8_DestroyISt6vectorIiSaIiEEEvPT_
FNDA:0,_ZNSt12_Destroy_auxILb0EE9__destroyIPSt6vectorIiSaIiEEEEvT_S6_
FNDA:0,_ZNSt12_Destroy_auxILb1EE9__destroyIPiEEvT_S3_
FNDA:0,_ZSt8_DestroyIPSt6vectorIiSaIiEEEvT_S4_
FNDA:0,_ZSt8_DestroyIPiEvT_S1_
FNDA:0,_ZSt8_DestroyIPSt6vectorIiSaIiEES2_EvT_S4_RSaIT0_E
FNDA:0,_ZSt8_DestroyIPiiEvT_S1_RSaIT0_E
FNF:8
FNH:0
DA:74,0
DA:75,0
DA:97,0
DA:98,0
DA:105,0
DA:107,0
DA:108,0
DA:109,0
DA:117,0
DA:127,0
DA:137,0
DA:138,0
DA:203,0
DA:206,0
DA:207,0
LF:15
LH:0
end_of_record
SF:/usr/include/c++/7/bits/stl_iterator.h
FN:782,_ZN9__gnu_cxx17__normal_iteratorIPKiSt6vectorIiSaIiEEEC2ERKS2_
FN:847,_ZNK9__gnu_cxx17__normal_iteratorIPKiSt6vectorIiSaIiEEE4baseEv
FN:986,_ZSt12__niter_baseIPKiSt6vectorIiSaIiEEET_N9__gnu_cxx17__normal_iteratorIS5_T0_EE
FNDA:0,_ZN9__gnu_cxx17__normal_iteratorIPKiSt6vectorIiSaIiEEEC2ERKS2_
FNDA:0,_ZNK9__gnu_cxx17__normal_iteratorIPKiSt6vectorIiSaIiEEE4baseEv
FNDA:0,_ZSt12__niter_baseIPKiSt6vectorIiSaIiEEET_N9__gnu_cxx17__normal_iteratorIS5_T0_EE
FNF:3
FNH:0
DA:782,0
DA:783,0
DA:847,0
DA:848,0
DA:986,0
DA:987,0
LF:6
LH:0
end_of_record
SF:/usr/include/c++/7/bits/stl_iterator_base_funcs.h
FN:98,_ZSt10__distanceIPKiENSt15iterator_traitsIT_E15difference_typeES3_S3_St26random_access_iterator_tag
FN:98,_ZSt10__distanceIPKSt6vectorIiSaIiEEENSt15iterator_traitsIT_E15difference_typeES6_S6_St26random_access_iterator_tag
FN:138,_ZSt8distanceIPKiENSt15iterator_traitsIT_E15difference_typeES3_S3_
FN:138,_ZSt8distanceIPKSt6vectorIiSaIiEEENSt15iterator_traitsIT_E15difference_typeES6_S6_
FNDA:0,_ZSt10__distanceIPKSt6vectorIiSaIiEEENSt15iterator_traitsIT_E15difference_typeES6_S6_St26random_access_iterator_tag
FNDA:0,_ZSt10__distanceIPKiENSt15iterator_traitsIT_E15difference_typeES3_S3_St26random_access_iterator_tag
FNDA:0,_ZSt8distanceIPKSt6vectorIiSaIiEEENSt15iterator_traitsIT_E15difference_typeES6_S6_
FNDA:0,_ZSt8distanceIPKiENSt15iterator_traitsIT_E15difference_typeES3_S3_
FNF:4
FNH:0
DA:98,0
DA:104,0
DA:138,0
DA:141,0
DA:142,0
LF:5
LH:0
end_of_record
SF:/usr/include/c++/7/bits/stl_iterator_base_types.h
FN:205,_ZSt19__iterator_categoryIPKiENSt15iterator_traitsIT_E17iterator_categoryERKS3_
FN:205,_ZSt19__iterator_categoryIPKSt6vectorIiSaIiEEENSt15iterator_traitsIT_E17iterator_categoryERKS6_
FNDA:0,_ZSt19__iterator_categoryIPKSt6vectorIiSaIiEEENSt15iterator_traitsIT_E17iterator_categoryERKS6_
FNDA:0,_ZSt19__iterator_categoryIPKiENSt15iterator_traitsIT_E17iterator_categoryERKS3_
FNF:2
FNH:0
DA:205,0
DA:206,0
LF:2
LH:0
end_of_record
SF:/usr/include/c++/7/bits/stl_uninitialized.h
FN:76,_ZNSt20__uninitialized_copyILb0EE13__uninit_copyIPKSt6vectorIiSaIiEEPS4_EET0_T_S9_S8_
FN:99,_ZNSt20__uninitialized_copyILb1EE13__uninit_copyIN9__gnu_cxx17__normal_iteratorIPKiSt6vectorIiSaIiEEEEPiEET0_T_SC_SB_
FN:99,_ZNSt20__uninitialized_copyILb1EE13__uninit_copyIPKiPiEET0_T_S6_S5_
FN:115,_ZSt18uninitialized_copyIPKSt6vectorIiSaIiEEPS2_ET0_T_S7_S6_
FN:115,_ZSt18uninitialized_copyIPKiPiET0_T_S4_S3_
FN:115,_ZSt18uninitialized_copyIN9__gnu_cxx17__normal_iteratorIPKiSt6vectorIiSaIiEEEEPiET0_T_SA_S9_
FN:287,_ZSt22__uninitialized_copy_aIPKSt6vectorIiSaIiEEPS2_S2_ET0_T_S7_S6_RSaIT1_E
FN:287,_ZSt22__uninitialized_copy_aIN9__gnu_cxx17__normal_iteratorIPKiSt6vectorIiSaIiEEEEPiiET0_T_SA_S9_RSaIT1_E
FN:287,_ZSt22__uninitialized_copy_aIPKiPiiET0_T_S4_S3_RSaIT1_E
FNDA:0,_ZNSt20__uninitialized_copyILb0EE13__uninit_copyIPKSt6vectorIiSaIiEEPS4_EET0_T_S9_S8_
FNDA:0,_ZNSt20__uninitialized_copyILb1EE13__uninit_copyIN9__gnu_cxx17__normal_iteratorIPKiSt6vectorIiSaIiEEEEPiEET0_T_SC_SB_
FNDA:0,_ZNSt20__uninitialized_copyILb1EE13__uninit_copyIPKiPiEET0_T_S6_S5_
FNDA:0,_ZSt18uninitialized_copyIN9__gnu_cxx17__normal_iteratorIPKiSt6vectorIiSaIiEEEEPiET0_T_SA_S9_
FNDA:0,_ZSt18uninitialized_copyIPKSt6vectorIiSaIiEEPS2_ET0_T_S7_S6_
FNDA:0,_ZSt18uninitialized_copyIPKiPiET0_T_S4_S3_
FNDA:0,_ZSt22__uninitialized_copy_aIN9__gnu_cxx17__normal_iteratorIPKiSt6vectorIiSaIiEEEEPiiET0_T_SA_S9_RSaIT1_E
FNDA:0,_ZSt22__uninitialized_copy_aIPKSt6vectorIiSaIiEEPS2_S2_ET0_T_S7_S6_RSaIT1_E
FNDA:0,_ZSt22__uninitialized_copy_aIPKiPiiET0_T_S4_S3_RSaIT1_E
FNF:9
FNH:0
DA:76,0
DA:79,0
DA:82,0
DA:83,0
DA:84,0
DA:86,0
DA:88,0
DA:89,0
DA:99,0
DA:101,0
DA:115,0
DA:128,0
DA:134,0
DA:287,0
DA:289,0
LF:15
LH:0
end_of_record
SF:/usr/include/c++/7/bits/stl_vector.h
FN:81,_ZNSt12_Vector_baseISt6vectorIiSaIiEESaIS2_EE12_Vector_implD2Ev
FN:81,_ZNSt12_Vector_baseIiSaIiEE12_Vector_implD2Ev
FN:92,_ZNSt12_Vector_baseIiSaIiEE12_Vector_implC2ERKS0_
FN:92,_ZNSt12_Vector_baseISt6vectorIiSaIiEESaIS2_EE12_Vector_implC2ERKS3_
FN:115,_ZNSt12_Vector_baseISt6vectorIiSaIiEESaIS2_EE19_M_get_Tp_allocatorEv
FN:115,_ZNSt12_Vector_baseIiSaIiEE19_M_get_Tp_allocatorEv
FN:119,_ZNKSt12_Vector_baseIiSaIiEE19_M_get_Tp_allocatorEv
FN:129,_ZNSt12_Vector_baseISt6vectorIiSaIiEESaIS2_EEC2ERKS3_
FN:129,_ZNSt12_Vector_baseIiSaIiEEC2ERKS0_
FN:136,_ZNSt12_Vector_baseIiSaIiEEC2EmRKS0_
FN:161,_ZNSt12_Vector_baseIiSaIiEED2Ev
FN:161,_ZNSt12_Vector_baseISt6vectorIiSaIiEESaIS2_EED2Ev
FN:169,_ZNSt12_Vector_baseIiSaIiEE11_M_allocateEm
FN:169,_ZNSt12_Vector_baseISt6vectorIiSaIiEESaIS2_EE11_M_allocateEm
FN:176,_ZNSt12_Vector_baseIiSaIiEE13_M_deallocateEPim
FN:176,_ZNSt12_Vector_baseISt6vectorIiSaIiEESaIS2_EE13_M_deallocateEPS2_m
FN:185,_ZNSt12_Vector_baseIiSaIiEE17_M_create_storageEm
FN:326,_ZNSt6vectorIiSaIiEEC2ERKS1_
FN:383,_ZNSt6vectorIiSaIiEEC2ESt16initializer_listIiERKS0_
FN:383,_ZNSt6vectorIS_IiSaIiEESaIS1_EEC2ESt16initializer_listIS1_ERKS2_
FN:433,_ZNSt6vectorIS_IiSaIiEESaIS1_EED2Ev
FN:433,_ZNSt6vectorIiSaIiEED2Ev
FN:572,_ZNKSt6vectorIiSaIiEE5beginEv
FN:590,_ZNKSt6vectorIiSaIiEE3endEv
FN:670,_ZNKSt6vectorIiSaIiEE4sizeEv
FN:1324,_ZNSt6vectorIiSaIiEE19_M_range_initializeIPKiEEvT_S5_St20forward_iterator_tag
FN:1324,_ZNSt6vectorIS_IiSaIiEESaIS1_EE19_M_range_initializeIPKS1_EEvT_S7_St20forward_iterator_tag
FNDA:0,_ZNSt12_Vector_baseISt6vectorIiSaIiEESaIS2_EE12_Vector_implD2Ev
FNDA:0,_ZNSt12_Vector_baseIiSaIiEE12_Vector_implD2Ev
FNDA:0,_ZNSt12_Vector_baseISt6vectorIiSaIiEESaIS2_EE12_Vector_implC2ERKS3_
FNDA:0,_ZNSt12_Vector_baseIiSaIiEE12_Vector_implC2ERKS0_
FNDA:0,_ZNSt12_Vector_baseISt6vectorIiSaIiEESaIS2_EE19_M_get_Tp_allocatorEv
FNDA:0,_ZNSt12_Vector_baseIiSaIiEE19_M_get_Tp_allocatorEv
FNDA:0,_ZNKSt12_Vector_baseIiSaIiEE19_M_get_Tp_allocatorEv
FNDA:0,_ZNSt12_Vector_baseISt6vectorIiSaIiEESaIS2_EEC2ERKS3_
FNDA:0,_ZNSt12_Vector_baseIiSaIiEEC2ERKS0_
FNDA:0,_ZNSt12_Vector_baseIiSaIiEEC2EmRKS0_
FNDA:0,_ZNSt12_Vector_baseISt6vectorIiSaIiEESaIS2_EED2Ev
FNDA:0,_ZNSt12_Vector_baseIiSaIiEED2Ev
FNDA:0,_ZNSt12_Vector_baseISt6vectorIiSaIiEESaIS2_EE11_M_allocateEm
FNDA:0,_ZNSt12_Vector_baseIiSaIiEE11_M_allocateEm
FNDA:0,_ZNSt12_Vector_baseISt6vectorIiSaIiEESaIS2_EE13_M_deallocateEPS2_m
FNDA:0,_ZNSt12_Vector_baseIiSaIiEE13_M_deallocateEPim
FNDA:0,_ZNSt12_Vector_baseIiSaIiEE17_M_create_storageEm
FNDA:0,_ZNSt6vectorIiSaIiEEC2ERKS1_
FNDA:0,_ZNSt6vectorIS_IiSaIiEESaIS1_EEC2ESt16initializer_listIS1_ERKS2_
FNDA:0,_ZNSt6vectorIiSaIiEEC2ESt16initializer_listIiERKS0_
FNDA:0,_ZNSt6vectorIS_IiSaIiEESaIS1_EED2Ev
FNDA:0,_ZNSt6vectorIiSaIiEED2Ev
FNDA:0,_ZNKSt6vectorIiSaIiEE5beginEv
FNDA:0,_ZNKSt6vectorIiSaIiEE3endEv
FNDA:0,_ZNKSt6vectorIiSaIiEE4sizeEv
FNDA:0,_ZNSt6vectorIS_IiSaIiEESaIS1_EE19_M_range_initializeIPKS1_EEvT_S7_St20forward_iterator_tag
FNDA:0,_ZNSt6vectorIiSaIiEE19_M_range_initializeIPKiEEvT_S5_St20forward_iterator_tag
FNF:27
FNH:0
DA:81,0
DA:92,0
DA:93,0
DA:94,0
DA:115,0
DA:116,0
DA:119,0
DA:120,0
DA:129,0
DA:130,0
DA:136,0
DA:137,0
DA:138,0
DA:161,0
DA:162,0
DA:163,0
DA:169,0
DA:172,0
DA:176,0
DA:179,0
DA:180,0
DA:181,0
DA:185,0
DA:187,0
DA:188,0
DA:189,0
DA:190,0
DA:326,0
DA:328,0
DA:330,0
DA:331,0
DA:333,0
DA:334,0
DA:383,0
DA:385,0
DA:387,0
DA:389,0
DA:433,0
DA:434,0
DA:435,0
DA:572,0
DA:573,0
DA:590,0
DA:591,0
DA:670,0
DA:671,0
DA:1324,0
DA:1327,0
DA:1328,0
DA:1329,0
DA:1330,0
DA:1331,0
DA:1333,0
DA:1334,0
LF:54
LH:0
end_of_record
SF:/usr/include/c++/7/ext/alloc_traits.h
FN:94,_ZN9__gnu_cxx14__alloc_traitsISaIiEE17_S_select_on_copyERKS1_
FNDA:0,_ZN9__gnu_cxx14__alloc_traitsISaIiEE17_S_select_on_copyERKS1_
FNF:1
FNH:0
DA:94,0
DA:95,0
LF:2
LH:0
end_of_record
SF:/usr/include/c++/7/ext/new_allocator.h
FN:79,_ZN9__gnu_cxx13new_allocatorIiEC2Ev
FN:79,_ZN9__gnu_cxx13new_allocatorISt6vectorIiSaIiEEEC2Ev
FN:81,_ZN9__gnu_cxx13new_allocatorISt6vectorIiSaIiEEEC2ERKS4_
FN:81,_ZN9__gnu_cxx13new_allocatorIiEC2ERKS1_
FN:86,_ZN9__gnu_cxx13new_allocatorISt6vectorIiSaIiEEED2Ev
FN:86,_ZN9__gnu_cxx13new_allocatorIiED2Ev
FN:99,_ZN9__gnu_cxx13new_allocatorISt6vectorIiSaIiEEE8allocateEmPKv
FN:99,_ZN9__gnu_cxx13new_allocatorIiE8allocateEmPKv
FN:116,_ZN9__gnu_cxx13new_allocatorISt6vectorIiSaIiEEE10deallocateEPS3_m
FN:116,_ZN9__gnu_cxx13new_allocatorIiE10deallocateEPim
FN:129,_ZNK9__gnu_cxx13new_allocatorIiE8max_sizeEv
FN:129,_ZNK9__gnu_cxx13new_allocatorISt6vectorIiSaIiEEE8max_sizeEv
FNDA:0,_ZN9__gnu_cxx13new_allocatorISt6vectorIiSaIiEEEC2Ev
FNDA:0,_ZN9__gnu_cxx13new_allocatorIiEC2Ev
FNDA:0,_ZN9__gnu_cxx13new_allocatorISt6vectorIiSaIiEEEC2ERKS4_
FNDA:0,_ZN9__gnu_cxx13new_allocatorIiEC2ERKS1_
FNDA:0,_ZN9__gnu_cxx13new_allocatorISt6vectorIiSaIiEEED2Ev
FNDA:0,_ZN9__gnu_cxx13new_allocatorIiED2Ev
FNDA:0,_ZN9__gnu_cxx13new_allocatorISt6vectorIiSaIiEEE8allocateEmPKv
FNDA:0,_ZN9__gnu_cxx13new_allocatorIiE8allocateEmPKv
FNDA:0,_ZN9__gnu_cxx13new_allocatorISt6vectorIiSaIiEEE10deallocateEPS3_m
FNDA:0,_ZN9__gnu_cxx13new_allocatorIiE10deallocateEPim
FNDA:0,_ZNK9__gnu_cxx13new_allocatorISt6vectorIiSaIiEEE8max_sizeEv
FNDA:0,_ZNK9__gnu_cxx13new_allocatorIiE8max_sizeEv
FNF:12
FNH:0
DA:79,0
DA:81,0
DA:86,0
DA:99,0
DA:101,0
DA:102,0
DA:111,0
DA:116,0
DA:125,0
DA:126,0
DA:129,0
DA:130,0
LF:12
LH:0
end_of_record
SF:/usr/include/c++/7/initializer_list
FN:71,_ZNKSt16initializer_listIiE4sizeEv
FN:71,_ZNKSt16initializer_listISt6vectorIiSaIiEEE4sizeEv
FN:75,_ZNKSt16initializer_listIiE5beginEv
FN:75,_ZNKSt16initializer_listISt6vectorIiSaIiEEE5beginEv
FN:79,_ZNKSt16initializer_listISt6vectorIiSaIiEEE3endEv
FN:79,_ZNKSt16initializer_listIiE3endEv
FNDA:0,_ZNKSt16initializer_listISt6vectorIiSaIiEEE4sizeEv
FNDA:0,_ZNKSt16initializer_listIiE4sizeEv
FNDA:0,_ZNKSt16initializer_listISt6vectorIiSaIiEEE5beginEv
FNDA:0,_ZNKSt16initializer_listIiE5beginEv
FNDA:0,_ZNKSt16initializer_listISt6vectorIiSaIiEEE3endEv
FNDA:0,_ZNKSt16initializer_listIiE3endEv
FNF:6
FNH:0
DA:71,0
DA:75,0
DA:79,0
LF:3
LH:0
end_of_record
SF:/usr/include/c++/7/iostream
DA:74,1
LF:1
LH:1
end_of_record
SF:/usr/include/c++/7/new
FN:168,_ZnwmPv
FN:174,_ZdlPvS_
FNDA:0,_ZnwmPv
FNDA:0,_ZdlPvS_
FNF:2
FNH:0
DA:168,0
DA:169,0
DA:174,0
LF:3
LH:0
end_of_record
TN:
SF:/home/msaied/Documents/TPI-morfologia-matematica/lib/googletest-master/googletest/include/gtest/gtest-message.h
FN:85,_ZN7testing7MessageD2Ev
FNDA:0,_ZN7testing7MessageD2Ev
FNF:1
FNH:0
DA:85,0
LF:1
LH:0
end_of_record
SF:/home/msaied/Documents/TPI-morfologia-matematica/lib/googletest-master/googletest/include/gtest/gtest.h
FN:268,_ZN7testing15AssertionResultD2Ev
FN:304,_ZNK7testing15AssertionResultcvbEv
FN:313,_ZNK7testing15AssertionResult7messageEv
FN:318,_ZNK7testing15AssertionResult15failure_messageEv
FN:414,_ZN7testing4Test13SetUpTestCaseEv
FN:422,_ZN7testing4Test16TearDownTestCaseEv
FN:499,_ZN7testing4Test5SetupEv
FNDA:0,_ZN7testing15AssertionResultD2Ev
FNDA:0,_ZNK7testing15AssertionResultcvbEv
FNDA:0,_ZNK7testing15AssertionResult7messageEv
FNDA:0,_ZNK7testing15AssertionResult15failure_messageEv
FNDA:0,_ZN7testing4Test13SetUpTestCaseEv
FNDA:0,_ZN7testing4Test16TearDownTestCaseEv
FNDA:0,_ZN7testing4Test5SetupEv
FNF:7
FNH:0
DA:268,0
DA:304,0
DA:313,0
DA:314,0
DA:318,0
DA:414,0
DA:422,0
DA:499,0
LF:8
LH:0
end_of_record
SF:/home/msaied/Documents/TPI-morfologia-matematica/lib/googletest-master/googletest/include/gtest/internal/gtest-internal.h
FN:448,_ZN7testing8internal15TestFactoryBaseD0Ev
FN:448,_ZN7testing8internal15TestFactoryBaseD2Ev
FN:455,_ZN7testing8internal15TestFactoryBaseC2Ev
FN:464,_ZN7testing8internal15TestFactoryImplI51devolverPromedioAreasTest_regionEnteraEnAdy8_3_TestED2Ev
FN:464,_ZN7testing8internal15TestFactoryImplI53devolverPromedioAreasTest_matrizApagada_enAdy8_1_TestED2Ev
FN:464,_ZN7testing8internal15TestFactoryImplI53devolverPromedioAreasTest_matrizApagada_enAdy4_1_TestED0Ev
FN:464,_ZN7testing8internal15TestFactoryImplI51devolverPromedioAreasTest_regionEnteraEnAdy4_1_TestEC2Ev
FN:464,_ZN7testing8internal15TestFactoryImplI54devolverPromedioAreasTest_promedioDecimalEnAdy8_1_TestED2Ev
FN:464,_ZN7testing8internal15TestFactoryImplI54devolverPromedioAreasTest_promedioDecimalEnAdy8_1_TestEC2Ev
FN:464,_ZN7testing8internal15TestFactoryImplI54devolverPromedioAreasTest_promedioDecimalEnAdy4_2_TestED2Ev
FN:464,_ZN7testing8internal15TestFactoryImplI51devolverPromedioAreasTest_MatrizActivaEnAdy4_3_TestEC2Ev
FN:464,_ZN7testing8internal15TestFactoryImplI51devolverPromedioAreasTest_regionEnteraEnAdy4_3_TestED2Ev
FN:464,_ZN7testing8internal15TestFactoryImplI54devolverPromedioAreasTest_promedioDecimalEnAdy4_3_TestED0Ev
FN:464,_ZN7testing8internal15TestFactoryImplI54devolverPromedioAreasTest_promedioDecimalEnAdy4_3_TestEC2Ev
FN:464,_ZN7testing8internal15TestFactoryImplI51devolverPromedioAreasTest_regionEnteraEnAdy8_1_TestED0Ev
FN:464,_ZN7testing8internal15TestFactoryImplI51devolverPromedioAreasTest_MatrizActivaEnAdy8_1_TestEC2Ev
FN:464,_ZN7testing8internal15TestFactoryImplI53devolverPromedioAreasTest_matrizApagada_enAdy8_2_TestED0Ev
FN:464,_ZN7testing8internal15TestFactoryImplI54devolverPromedioAreasTest_promedioDecimalEnAdy4_3_TestED2Ev
FN:464,_ZN7testing8internal15TestFactoryImplI57devolverPromedioAreasTest_regionesDeUnPixel_EnAdy4_2_TestED0Ev
FN:464,_ZN7testing8internal15TestFactoryImplI57devolverPromedioAreasTest_regionesDeUnPixel_EnAdy8_1_TestEC2Ev
FN:464,_ZN7testing8internal15TestFactoryImplI51devolverPromedioAreasTest_MatrizActivaEnAdy4_3_TestED0Ev
FN:464,_ZN7testing8internal15TestFactoryImplI53devolverPromedioAreasTest_matrizApagada_enAdy8_1_TestED0Ev
FN:464,_ZN7testing8internal15TestFactoryImplI51devolverPromedioAreasTest_MatrizActivaEnAdy8_1_TestED2Ev
FN:464,_ZN7testing8internal15TestFactoryImplI57devolverPromedioAreasTest_regionesDeUnPixel_EnAdy8_1_TestED0Ev
FN:464,_ZN7testing8internal15TestFactoryImplI54devolverPromedioAreasTest_promedioDecimalEnAdy8_3_TestED0Ev
FN:464,_ZN7testing8internal15TestFactoryImplI57devolverPromedioAreasTest_regionesDeUnPixel_EnAdy4_1_TestED0Ev
FN:464,_ZN7testing8internal15TestFactoryImplI57devolverPromedioAreasTest_regionesDeUnPixel_EnAdy4_3_TestED2Ev
FN:464,_ZN7testing8internal15TestFactoryImplI51devolverPromedioAreasTest_regionEnteraEnAdy8_3_TestEC2Ev
FN:464,_ZN7testing8internal15TestFactoryImplI57devolverPromedioAreasTest_regionesDeUnPixel_EnAdy4_1_TestED2Ev
FN:464,_ZN7testing8internal15TestFactoryImplI54devolverPromedioAreasTest_promedioDecimalEnAdy4_2_TestEC2Ev
FN:464,_ZN7testing8internal15TestFactoryImplI51devolverPromedioAreasTest_regionEnteraEnAdy4_1_TestED2Ev
FN:464,_ZN7testing8internal15TestFactoryImplI57devolverPromedioAreasTest_regionesDeUnPixel_EnAdy4_1_TestEC2Ev
FN:464,_ZN7testing8internal15TestFactoryImplI53devolverPromedioAreasTest_matrizApagada_enAdy4_1_TestEC2Ev
FN:464,_ZN7testing8internal15TestFactoryImplI53devolverPromedioAreasTest_matrizApagada_enAdy4_4_TestED2Ev
FN:464,_ZN7testing8internal15TestFactoryImplI51devolverPromedioAreasTest_regionEnteraEnAdy8_1_TestED2Ev
FN:464,_ZN7testing8internal15TestFactoryImplI54devolverPromedioAreasTest_promedioDecimalEnAdy8_3_TestEC2Ev
FN:464,_ZN7testing8internal15TestFactoryImplI53devolverPromedioAreasTest_matrizApagada_enAdy4_4_TestED0Ev
FN:464,_ZN7testing8internal15TestFactoryImplI57devolverPromedioAreasTest_regionesDeUnPixel_EnAdy4_3_TestEC2Ev
FN:464,_ZN7testing8internal15TestFactoryImplI51devolverPromedioAreasTest_regionEnteraEnAdy8_1_TestEC2Ev
FN:464,_ZN7testing8internal15TestFactoryImplI51devolverPromedioAreasTest_MatrizActivaEnAdy8_1_TestED0Ev
FN:464,_ZN7testing8internal15TestFactoryImplI57devolverPromedioAreasTest_regionesDeUnPixel_EnAdy4_2_TestED2Ev
FN:464,_ZN7testing8internal15TestFactoryImplI54devolverPromedioAreasTest_promedioDecimalEnAdy8_3_TestED2Ev
FN:464,_ZN7testing8internal15TestFactoryImplI57devolverPromedioAreasTest_regionesDeUnPixel_EnAdy8_1_TestED2Ev
FN:464,_ZN7testing8internal15TestFactoryImplI51devolverPromedioAreasTest_regionEnteraEnAdy4_3_TestEC2Ev
FN:464,_ZN7testing8internal15TestFactoryImplI53devolverPromedioAreasTest_matrizApagada_enAdy8_1_TestEC2Ev
FN:464,_ZN7testing8internal15TestFactoryImplI51devolverPromedioAreasTest_regionEnteraEnAdy8_3_TestED0Ev
FN:464,_ZN7testing8internal15TestFactoryImplI54devolverPromedioAreasTest_promedioDecimalEnAdy4_2_TestED0Ev
FN:464,_ZN7testing8internal15TestFactoryImplI51devolverPromedioAreasTest_regionEnteraEnAdy4_1_TestED0Ev
FN:464,_ZN7testing8internal15TestFactoryImplI53devolverPromedioAreasTest_matrizApagada_enAdy4_1_TestED2Ev
FN:464,_ZN7testing8internal15TestFactoryImplI53devolverPromedioAreasTest_matrizApagada_enAdy8_2_TestED2Ev
FN:464,_ZN7testing8internal15TestFactoryImplI54devolverPromedioAreasTest_promedioDecimalEnAdy8_1_TestED0Ev
FN:464,_ZN7testing8internal15TestFactoryImplI53devolverPromedioAreasTest_matrizApagada_enAdy8_2_TestEC2Ev
FN:464,_ZN7testing8internal15TestFactoryImplI57devolverPromedioAreasTest_regionesDeUnPixel_EnAdy4_3_TestED0Ev
FN:464,_ZN7testing8internal15TestFactoryImplI51devolverPromedioAreasTest_regionEnteraEnAdy4_3_TestED0Ev
FN:464,_ZN7testing8internal15TestFactoryImplI51devolverPromedioAreasTest_MatrizActivaEnAdy4_3_TestED2Ev
FN:464,_ZN7testing8internal15TestFactoryImplI57devolverPromedioAreasTest_regionesDeUnPixel_EnAdy4_2_TestEC2Ev
FN:464,_ZN7testing8internal15TestFactoryImplI53devolverPromedioAreasTest_matrizApagada_enAdy4_4_TestEC2Ev
FN:466,_ZN7testing8internal15TestFactoryImplI53devolverPromedioAreasTest_matrizApagada_enAdy4_1_TestE10CreateTestEv
FN:466,_ZN7testing8internal15TestFactoryImplI51devolverPromedioAreasTest_regionEnteraEnAdy8_3_TestE10CreateTestEv
FN:466,_ZN7testing8internal15TestFactoryImplI54devolverPromedioAreasTest_promedioDecimalEnAdy4_2_TestE10CreateTestEv
FN:466,_ZN7testing8internal15TestFactoryImplI51devolverPromedioAreasTest_MatrizActivaEnAdy4_3_TestE10CreateTestEv
FN:466,_ZN7testing8internal15TestFactoryImplI53devolverPromedioAreasTest_matrizApagada_enAdy4_4_TestE10CreateTestEv
FN:466,_ZN7testing8internal15TestFactoryImplI51devolverPromedioAreasTest_MatrizActivaEnAdy8_1_TestE10CreateTestEv
FN:466,_ZN7testing8internal15TestFactoryImplI57devolverPromedioAreasTest_regionesDeUnPixel_EnAdy8_1_TestE10CreateTestEv
FN:466,_ZN7testing8internal15TestFactoryImplI54devolverPromedioAreasTest_promedioDecimalEnAdy8_3_TestE10CreateTestEv
FN:466,_ZN7testing8internal15TestFactoryImplI51devolverPromedioAreasTest_regionEnteraEnAdy4_3_TestE10CreateTestEv
FN:466,_ZN7testing8internal15TestFactoryImplI51devolverPromedioAreasTest_regionEnteraEnAdy8_1_TestE10CreateTestEv
FN:466,_ZN7testing8internal15TestFactoryImplI54devolverPromedioAreasTest_promedioDecimalEnAdy4_3_TestE10CreateTestEv
FN:466,_ZN7testing8internal15TestFactoryImplI57devolverPromedioAreasTest_regionesDeUnPixel_EnAdy4_2_TestE10CreateTestEv
FN:466,_ZN7testing8internal15TestFactoryImplI54devolverPromedioAreasTest_promedioDecimalEnAdy8_1_TestE10CreateTestEv
FN:466,_ZN7testing8internal15TestFactoryImplI51devolverPromedioAreasTest_regionEnteraEnAdy4_1_TestE10CreateTestEv
FN:466,_ZN7testing8internal15TestFactoryImplI53devolverPromedioAreasTest_matrizApagada_enAdy8_2_TestE10CreateTestEv
FN:466,_ZN7testing8internal15TestFactoryImplI57devolverPromedioAreasTest_regionesDeUnPixel_EnAdy4_3_TestE10CreateTestEv
FN:466,_ZN7testing8internal15TestFactoryImplI57devolverPromedioAreasTest_regionesDeUnPixel_EnAdy4_1_TestE10CreateTestEv
FN:466,_ZN7testing8internal15TestFactoryImplI53devolverPromedioAreasTest_matrizApagada_enAdy8_1_TestE10CreateTestEv
FN:486,_ZN7testing8internal12CodeLocationD2Ev
FN:487,_ZN7testing8internal12CodeLocationC2ERKNSt7__cxx1112basic_stringIcSt11char_traitsIcESaIcEEEi
FNDA:0,_ZN7testing8internal15TestFactoryBaseD0Ev
FNDA:0,_ZN7testing8internal15TestFactoryBaseD2Ev
FNDA:0,_ZN7testing8internal15TestFactoryBaseC2Ev
FNDA:6,_ZN7testing8internal15TestFactoryImplI53devolverPromedioAreasTest_matrizApagada_enAdy4_1_TestED0Ev
FNDA:6,_ZN7testing8internal15TestFactoryImplI53devolverPromedioAreasTest_matrizApagada_enAdy4_1_TestED2Ev
FNDA:6,_ZN7testing8internal15TestFactoryImplI53devolverPromedioAreasTest_matrizApagada_enAdy4_4_TestED0Ev
FNDA:6,_ZN7testing8internal15TestFactoryImplI53devolverPromedioAreasTest_matrizApagada_enAdy4_4_TestED2Ev
FNDA:6,_ZN7testing8internal15TestFactoryImplI53devolverPromedioAreasTest_matrizApagada_enAdy8_1_TestED0Ev
FNDA:6,_ZN7testing8internal15TestFactoryImplI53devolverPromedioAreasTest_matrizApagada_enAdy8_1_TestED2Ev
FNDA:6,_ZN7testing8internal15TestFactoryImplI53devolverPromedioAreasTest_matrizApagada_enAdy8_2_TestED0Ev
FNDA:6,_ZN7testing8internal15TestFactoryImplI53devolverPromedioAreasTest_matrizApagada_enAdy8_2_TestED2Ev
FNDA:6,_ZN7testing8internal15TestFactoryImplI57devolverPromedioAreasTest_regionesDeUnPixel_EnAdy4_1_TestED0Ev
FNDA:6,_ZN7testing8internal15TestFactoryImplI57devolverPromedioAreasTest_regionesDeUnPixel_EnAdy4_1_TestED2Ev
FNDA:6,_ZN7testing8internal15TestFactoryImplI57devolverPromedioAreasTest_regionesDeUnPixel_EnAdy4_2_TestED0Ev
FNDA:6,_ZN7testing8internal15TestFactoryImplI57devolverPromedioAreasTest_regionesDeUnPixel_EnAdy4_2_TestED2Ev
FNDA:6,_ZN7testing8internal15TestFactoryImplI57devolverPromedioAreasTest_regionesDeUnPixel_EnAdy4_3_TestED0Ev
FNDA:6,_ZN7testing8internal15TestFactoryImplI57devolverPromedioAreasTest_regionesDeUnPixel_EnAdy4_3_TestED2Ev
FNDA:6,_ZN7testing8internal15TestFactoryImplI57devolverPromedioAreasTest_regionesDeUnPixel_EnAdy8_1_TestED0Ev
FNDA:6,_ZN7testing8internal15TestFactoryImplI57devolverPromedioAreasTest_regionesDeUnPixel_EnAdy8_1_TestED2Ev
FNDA:6,_ZN7testing8internal15TestFactoryImplI51devolverPromedioAreasTest_MatrizActivaEnAdy4_3_TestED0Ev
FNDA:6,_ZN7testing8internal15TestFactoryImplI51devolverPromedioAreasTest_MatrizActivaEnAdy4_3_TestED2Ev
FNDA:6,_ZN7testing8internal15TestFactoryImplI51devolverPromedioAreasTest_MatrizActivaEnAdy8_1_TestED0Ev
FNDA:6,_ZN7testing8internal15TestFactoryImplI51devolverPromedioAreasTest_MatrizActivaEnAdy8_1_TestED2Ev
FNDA:6,_ZN7testing8internal15TestFactoryImplI51devolverPromedioAreasTest_regionEnteraEnAdy4_1_TestED0Ev
FNDA:6,_ZN7testing8internal15TestFactoryImplI51devolverPromedioAreasTest_regionEnteraEnAdy4_1_TestED2Ev
FNDA:6,_ZN7testing8internal15TestFactoryImplI51devolverPromedioAreasTest_regionEnteraEnAdy4_3_TestED0Ev
FNDA:6,_ZN7testing8internal15TestFactoryImplI51devolverPromedioAreasTest_regionEnteraEnAdy4_3_TestED2Ev
FNDA:6,_ZN7testing8internal15TestFactoryImplI51devolverPromedioAreasTest_regionEnteraEnAdy8_1_TestED0Ev
FNDA:6,_ZN7testing8internal15TestFactoryImplI51devolverPromedioAreasTest_regionEnteraEnAdy8_1_TestED2Ev
FNDA:6,_ZN7testing8internal15TestFactoryImplI51devolverPromedioAreasTest_regionEnteraEnAdy8_3_TestED0Ev
FNDA:6,_ZN7testing8internal15TestFactoryImplI51devolverPromedioAreasTest_regionEnteraEnAdy8_3_TestED2Ev
FNDA:6,_ZN7testing8internal15TestFactoryImplI54devolverPromedioAreasTest_promedioDecimalEnAdy4_2_TestED0Ev
FNDA:6,_ZN7testing8internal15TestFactoryImplI54devolverPromedioAreasTest_promedioDecimalEnAdy4_2_TestED2Ev
FNDA:6,_ZN7testing8internal15TestFactoryImplI54devolverPromedioAreasTest_promedioDecimalEnAdy4_3_TestED0Ev
FNDA:6,_ZN7testing8internal15TestFactoryImplI54devolverPromedioAreasTest_promedioDecimalEnAdy4_3_TestED2Ev
FNDA:6,_ZN7testing8internal15TestFactoryImplI54devolverPromedioAreasTest_promedioDecimalEnAdy8_1_TestED0Ev
FNDA:6,_ZN7testing8internal15TestFactoryImplI54devolverPromedioAreasTest_promedioDecimalEnAdy8_1_TestED2Ev
FNDA:6,_ZN7testing8internal15TestFactoryImplI54devolverPromedioAreasTest_promedioDecimalEnAdy8_3_TestED0Ev
FNDA:6,_ZN7testing8internal15TestFactoryImplI54devolverPromedioAreasTest_promedioDecimalEnAdy8_3_TestED2Ev
FNDA:6,_ZN7testing8internal15TestFactoryImplI54devolverPromedioAreasTest_promedioDecimalEnAdy8_3_TestEC2Ev
FNDA:6,_ZN7testing8internal15TestFactoryImplI54devolverPromedioAreasTest_promedioDecimalEnAdy8_1_TestEC2Ev
FNDA:6,_ZN7testing8internal15TestFactoryImplI54devolverPromedioAreasTest_promedioDecimalEnAdy4_3_TestEC2Ev
FNDA:6,_ZN7testing8internal15TestFactoryImplI54devolverPromedioAreasTest_promedioDecimalEnAdy4_2_TestEC2Ev
FNDA:6,_ZN7testing8internal15TestFactoryImplI51devolverPromedioAreasTest_regionEnteraEnAdy8_3_TestEC2Ev
FNDA:6,_ZN7testing8internal15TestFactoryImplI51devolverPromedioAreasTest_regionEnteraEnAdy8_1_TestEC2Ev
FNDA:6,_ZN7testing8internal15TestFactoryImplI51devolverPromedioAreasTest_regionEnteraEnAdy4_3_TestEC2Ev
FNDA:6,_ZN7testing8internal15TestFactoryImplI51devolverPromedioAreasTest_regionEnteraEnAdy4_1_TestEC2Ev
FNDA:6,_ZN7testing8internal15TestFactoryImplI51devolverPromedioAreasTest_MatrizActivaEnAdy8_1_TestEC2Ev
FNDA:6,_ZN7testing8internal15TestFactoryImplI51devolverPromedioAreasTest_MatrizActivaEnAdy4_3_TestEC2Ev
FNDA:6,_ZN7testing8internal15TestFactoryImplI57devolverPromedioAreasTest_regionesDeUnPixel_EnAdy8_1_TestEC2Ev
FNDA:6,_ZN7testing8internal15TestFactoryImplI57devolverPromedioAreasTest_regionesDeUnPixel_EnAdy4_3_TestEC2Ev
FNDA:6,_ZN7testing8internal15TestFactoryImplI57devolverPromedioAreasTest_regionesDeUnPixel_EnAdy4_2_TestEC2Ev
FNDA:6,_ZN7testing8internal15TestFactoryImplI57devolverPromedioAreasTest_regionesDeUnPixel_EnAdy4_1_TestEC2Ev
FNDA:6,_ZN7testing8internal15TestFactoryImplI53devolverPromedioAreasTest_matrizApagada_enAdy8_2_TestEC2Ev
FNDA:6,_ZN7testing8internal15TestFactoryImplI53devolverPromedioAreasTest_matrizApagada_enAdy8_1_TestEC2Ev
FNDA:6,_ZN7testing8internal15TestFactoryImplI53devolverPromedioAreasTest_matrizApagada_enAdy4_4_TestEC2Ev
FNDA:6,_ZN7testing8internal15TestFactoryImplI53devolverPromedioAreasTest_matrizApagada_enAdy4_1_TestEC2Ev
FNDA:6,_ZN7testing8internal15TestFactoryImplI53devolverPromedioAreasTest_matrizApagada_enAdy4_1_TestE10CreateTestEv
FNDA:6,_ZN7testing8internal15TestFactoryImplI53devolverPromedioAreasTest_matrizApagada_enAdy4_4_TestE10CreateTestEv
FNDA:6,_ZN7testing8internal15TestFactoryImplI53devolverPromedioAreasTest_matrizApagada_enAdy8_1_TestE10CreateTestEv
FNDA:6,_ZN7testing8internal15TestFactoryImplI53devolverPromedioAreasTest_matrizApagada_enAdy8_2_TestE10CreateTestEv
FNDA:6,_ZN7testing8internal15TestFactoryImplI57devolverPromedioAreasTest_regionesDeUnPixel_EnAdy4_1_TestE10CreateTestEv
FNDA:6,_ZN7testing8internal15TestFactoryImplI57devolverPromedioAreasTest_regionesDeUnPixel_EnAdy4_2_TestE10CreateTestEv
FNDA:6,_ZN7testing8internal15TestFactoryImplI57devolverPromedioAreasTest_regionesDeUnPixel_EnAdy4_3_TestE10CreateTestEv
FNDA:6,_ZN7testing8internal15TestFactoryImplI57devolverPromedioAreasTest_regionesDeUnPixel_EnAdy8_1_TestE10CreateTestEv
FNDA:6,_ZN7testing8internal15TestFactoryImplI51devolverPromedioAreasTest_MatrizActivaEnAdy4_3_TestE10CreateTestEv
FNDA:6,_ZN7testing8internal15TestFactoryImplI51devolverPromedioAreasTest_MatrizActivaEnAdy8_1_TestE10CreateTestEv
FNDA:6,_ZN7testing8internal15TestFactoryImplI51devolverPromedioAreasTest_regionEnteraEnAdy4_1_TestE10CreateTestEv
FNDA:6,_ZN7testing8internal15TestFactoryImplI51devolverPromedioAreasTest_regionEnteraEnAdy4_3_TestE10CreateTestEv
FNDA:6,_ZN7testing8internal15TestFactoryImplI51devolverPromedioAreasTest_regionEnteraEnAdy8_1_TestE10CreateTestEv
FNDA:6,_ZN7testing8internal15TestFactoryImplI51devolverPromedioAreasTest_regionEnteraEnAdy8_3_TestE10CreateTestEv
FNDA:6,_ZN7testing8internal15TestFactoryImplI54devolverPromedioAreasTest_promedioDecimalEnAdy4_2_TestE10CreateTestEv
FNDA:6,_ZN7testing8internal15TestFactoryImplI54devolverPromedioAreasTest_promedioDecimalEnAdy4_3_TestE10CreateTestEv
FNDA:6,_ZN7testing8internal15TestFactoryImplI54devolverPromedioAreasTest_promedioDecimalEnAdy8_1_TestE10CreateTestEv
FNDA:6,_ZN7testing8internal15TestFactoryImplI54devolverPromedioAreasTest_promedioDecimalEnAdy8_3_TestE10CreateTestEv
FNDA:0,_ZN7testing8internal12CodeLocationD2Ev
FNDA:0,_ZN7testing8internal12CodeLocationC2ERKNSt7__cxx1112basic_stringIcSt11char_traitsIcESaIcEEEi
FNF:77
FNH:72
DA:448,0
DA:455,0
DA:464,324
DA:466,108
DA:486,0
DA:487,0
DA:488,0
LF:7
LH:2
end_of_record
SF:/home/msaied/Documents/TPI-morfologia-matematica/lib/googletest-master/googletest/include/gtest/internal/gtest-port.h
FN:1185,_ZN7testing8internal10scoped_ptrINSt7__cxx1112basic_stringIcSt11char_traitsIcESaIcEEEED2Ev
FN:1185,_ZN7testing8internal10scoped_ptrINSt7__cxx1118basic_stringstreamIcSt11char_traitsIcESaIcEEEED2Ev
FN:1188,_ZNK7testing8internal10scoped_ptrINSt7__cxx1112basic_stringIcSt11char_traitsIcESaIcEEEEptEv
FN:1189,_ZNK7testing8internal10scoped_ptrINSt7__cxx1112basic_stringIcSt11char_traitsIcESaIcEEEE3getEv
FN:1197,_ZN7testing8internal10scoped_ptrINSt7__cxx1118basic_stringstreamIcSt11char_traitsIcESaIcEEEE5resetEPS7_
FN:1197,_ZN7testing8internal10scoped_ptrINSt7__cxx1112basic_stringIcSt11char_traitsIcESaIcEEEE5resetEPS7_
FNDA:0,_ZN7testing8internal10scoped_ptrINSt7__cxx1112basic_stringIcSt11char_traitsIcESaIcEEEED2Ev
FNDA:0,_ZN7testing8internal10scoped_ptrINSt7__cxx1118basic_stringstreamIcSt11char_traitsIcESaIcEEEED2Ev
FNDA:0,_ZNK7testing8internal10scoped_ptrINSt7__cxx1112basic_stringIcSt11char_traitsIcESaIcEEEEptEv
FNDA:0,_ZNK7testing8internal10scoped_ptrINSt7__cxx1112basic_stringIcSt11char_traitsIcESaIcEEEE3getEv
FNDA:0,_ZN7testing8internal10scoped_ptrINSt7__cxx1118basic_stringstreamIcSt11char_traitsIcESaIcEEEE5resetEPS7_
FNDA:0,_ZN7testing8internal10scoped_ptrINSt7__cxx1112basic_stringIcSt11char_traitsIcESaIcEEEE5resetEPS7_
FNF:6
FNH:0
DA:1185,0
DA:1188,0
DA:1189,0
DA:1197,0
DA:1198,0
DA:1199,0
DA:1200,0
DA:1202,0
DA:1204,0
LF:9
LH:0
end_of_record
SF:/home/msaied/Documents/TPI-morfologia-matematica/tests/ej3TEST.cpp
FN:8,_ZN53devolverPromedioAreasTest_matrizApagada_enAdy4_1_TestD2Ev
FN:8,_ZN53devolverPromedioAreasTest_matrizApagada_enAdy4_1_Test8TestBodyEv
FN:8,_ZN53devolverPromedioAreasTest_matrizApagada_enAdy4_1_TestD0Ev
FN:8,_ZN53devolverPromedioAreasTest_matrizApagada_enAdy4_1_TestC2Ev
FN:13,_ZN53devolverPromedioAreasTest_matrizApagada_enAdy4_4_Test8TestBodyEv
FN:13,_ZN53devolverPromedioAreasTest_matrizApagada_enAdy4_4_TestD0Ev
FN:13,_ZN53devolverPromedioAreasTest_matrizApagada_enAdy4_4_TestD2Ev
FN:13,_ZN53devolverPromedioAreasTest_matrizApagada_enAdy4_4_TestC2Ev
FN:20,_ZN53devolverPromedioAreasTest_matrizApagada_enAdy8_1_TestD0Ev
FN:20,_ZN53devolverPromedioAreasTest_matrizApagada_enAdy8_1_TestD2Ev
FN:20,_ZN53devolverPromedioAreasTest_matrizApagada_enAdy8_1_TestC2Ev
FN:20,_ZN53devolverPromedioAreasTest_matrizApagada_enAdy8_1_Test8TestBodyEv
FN:25,_ZN53devolverPromedioAreasTest_matrizApagada_enAdy8_2_TestD0Ev
FN:25,_ZN53devolverPromedioAreasTest_matrizApagada_enAdy8_2_TestC2Ev
FN:25,_ZN53devolverPromedioAreasTest_matrizApagada_enAdy8_2_TestD2Ev
FN:25,_ZN53devolverPromedioAreasTest_matrizApagada_enAdy8_2_Test8TestBodyEv
FN:32,_ZN57devolverPromedioAreasTest_regionesDeUnPixel_EnAdy4_1_TestC2Ev
FN:32,_ZN57devolverPromedioAreasTest_regionesDeUnPixel_EnAdy4_1_TestD2Ev
FN:32,_ZN57devolverPromedioAreasTest_regionesDeUnPixel_EnAdy4_1_Test8TestBodyEv
FN:32,_ZN57devolverPromedioAreasTest_regionesDeUnPixel_EnAdy4_1_TestD0Ev
FN:37,_ZN57devolverPromedioAreasTest_regionesDeUnPixel_EnAdy4_2_TestC2Ev
FN:37,_ZN57devolverPromedioAreasTest_regionesDeUnPixel_EnAdy4_2_TestD0Ev
FN:37,_ZN57devolverPromedioAreasTest_regionesDeUnPixel_EnAdy4_2_TestD2Ev
FN:37,_ZN57devolverPromedioAreasTest_regionesDeUnPixel_EnAdy4_2_Test8TestBodyEv
FN:42,_ZN57devolverPromedioAreasTest_regionesDeUnPixel_EnAdy4_3_TestD2Ev
FN:42,_ZN57devolverPromedioAreasTest_regionesDeUnPixel_EnAdy4_3_Test8TestBodyEv
FN:42,_ZN57devolverPromedioAreasTest_regionesDeUnPixel_EnAdy4_3_TestC2Ev
FN:42,_ZN57devolverPromedioAreasTest_regionesDeUnPixel_EnAdy4_3_TestD0Ev
FN:49,_ZN57devolverPromedioAreasTest_regionesDeUnPixel_EnAdy8_1_Test8TestBodyEv
FN:49,_ZN57devolverPromedioAreasTest_regionesDeUnPixel_EnAdy8_1_TestD0Ev
FN:49,_ZN57devolverPromedioAreasTest_regionesDeUnPixel_EnAdy8_1_TestD2Ev
FN:49,_ZN57devolverPromedioAreasTest_regionesDeUnPixel_EnAdy8_1_TestC2Ev
FN:58,_ZN51devolverPromedioAreasTest_MatrizActivaEnAdy4_3_TestC2Ev
FN:58,_ZN51devolverPromedioAreasTest_MatrizActivaEnAdy4_3_TestD2Ev
FN:58,_ZN51devolverPromedioAreasTest_MatrizActivaEnAdy4_3_TestD0Ev
FN:58,_ZN51devolverPromedioAreasTest_MatrizActivaEnAdy4_3_Test8TestBodyEv
FN:66,_ZN51devolverPromedioAreasTest_MatrizActivaEnAdy8_1_TestD2Ev
FN:66,_ZN51devolverPromedioAreasTest_MatrizActivaEnAdy8_1_TestD0Ev
FN:66,_ZN51devolverPromedioAreasTest_MatrizActivaEnAdy8_1_Test8TestBodyEv
FN:66,_ZN51devolverPromedioAreasTest_MatrizActivaEnAdy8_1_TestC2Ev
FN:72,_ZN51devolverPromedioAreasTest_regionEnteraEnAdy4_1_Test8TestBodyEv
FN:72,_ZN51devolverPromedioAreasTest_regionEnteraEnAdy4_1_TestC2Ev
FN:72,_ZN51devolverPromedioAreasTest_regionEnteraEnAdy4_1_TestD0Ev
FN:72,_ZN51devolverPromedioAreasTest_regionEnteraEnAdy4_1_TestD2Ev
FN:77,_ZN51devolverPromedioAreasTest_regionEnteraEnAdy4_3_TestD2Ev
FN:77,_ZN51devolverPromedioAreasTest_regionEnteraEnAdy4_3_TestD0Ev
FN:77,_ZN51devolverPromedioAreasTest_regionEnteraEnAdy4_3_TestC2Ev
FN:77,_ZN51devolverPromedioAreasTest_regionEnteraEnAdy4_3_Test8TestBodyEv
FN:82,_ZN51devolverPromedioAreasTest_regionEnteraEnAdy8_1_TestD0Ev
FN:82,_ZN51devolverPromedioAreasTest_regionEnteraEnAdy8_1_TestC2Ev
FN:82,_ZN51devolverPromedioAreasTest_regionEnteraEnAdy8_1_Test8TestBodyEv
FN:82,_ZN51devolverPromedioAreasTest_regionEnteraEnAdy8_1_TestD2Ev
FN:87,_ZN51devolverPromedioAreasTest_regionEnteraEnAdy8_3_TestD2Ev
FN:87,_ZN51devolverPromedioAreasTest_regionEnteraEnAdy8_3_TestC2Ev
FN:87,_ZN51devolverPromedioAreasTest_regionEnteraEnAdy8_3_TestD0Ev
FN:87,_ZN51devolverPromedioAreasTest_regionEnteraEnAdy8_3_Test8TestBodyEv
FN:94,_ZN54devolverPromedioAreasTest_promedioDecimalEnAdy4_2_TestD0Ev
FN:94,_ZN54devolverPromedioAreasTest_promedioDecimalEnAdy4_2_TestD2Ev
FN:94,_ZN54devolverPromedioAreasTest_promedioDecimalEnAdy4_2_TestC2Ev
FN:94,_ZN54devolverPromedioAreasTest_promedioDecimalEnAdy4_2_Test8TestBodyEv
FN:99,_ZN54devolverPromedioAreasTest_promedioDecimalEnAdy4_3_TestD2Ev
FN:99,_ZN54devolverPromedioAreasTest_promedioDecimalEnAdy4_3_Test8TestBodyEv
FN:99,_ZN54devolverPromedioAreasTest_promedioDecimalEnAdy4_3_TestD0Ev
FN:99,_ZN54devolverPromedioAreasTest_promedioDecimalEnAdy4_3_TestC2Ev
FN:106,_ZN54devolverPromedioAreasTest_promedioDecimalEnAdy8_1_TestD0Ev
FN:106,_ZN54devolverPromedioAreasTest_promedioDecimalEnAdy8_1_Test8TestBodyEv
FN:106,_ZN54devolverPromedioAreasTest_promedioDecimalEnAdy8_1_TestD2Ev
FN:106,_ZN54devolverPromedioAreasTest_promedioDecimalEnAdy8_1_TestC2Ev
FN:111,_ZN54devolverPromedioAreasTest_promedioDecimalEnAdy8_3_TestC2Ev
FN:111,_ZN54devolverPromedioAreasTest_promedioDecimalEnAdy8_3_TestD0Ev
FN:111,_ZN54devolverPromedioAreasTest_promedioDecimalEnAdy8_3_TestD2Ev
FN:111,_ZN54devolverPromedioAreasTest_promedioDecimalEnAdy8_3_Test8TestBodyEv
FN:114,_GLOBAL__sub_I_abs_error
FN:114,_Z41__static_initialization_and_destruction_0ii
FNDA:6,_ZN53devolverPromedioAreasTest_matrizApagada_enAdy4_1_TestD0Ev
FNDA:6,_ZN53devolverPromedioAreasTest_matrizApagada_enAdy4_1_TestD2Ev
FNDA:6,_ZN53devolverPromedioAreasTest_matrizApagada_enAdy4_1_Test8TestBodyEv
FNDA:6,_ZN53devolverPromedioAreasTest_matrizApagada_enAdy4_1_TestC2Ev
FNDA:6,_ZN53devolverPromedioAreasTest_matrizApagada_enAdy4_4_TestD0Ev
FNDA:6,_ZN53devolverPromedioAreasTest_matrizApagada_enAdy4_4_TestD2Ev
FNDA:6,_ZN53devolverPromedioAreasTest_matrizApagada_enAdy4_4_Test8TestBodyEv
FNDA:6,_ZN53devolverPromedioAreasTest_matrizApagada_enAdy4_4_TestC2Ev
FNDA:6,_ZN53devolverPromedioAreasTest_matrizApagada_enAdy8_1_TestD0Ev
FNDA:6,_ZN53devolverPromedioAreasTest_matrizApagada_enAdy8_1_TestD2Ev
FNDA:6,_ZN53devolverPromedioAreasTest_matrizApagada_enAdy8_1_Test8TestBodyEv
FNDA:6,_ZN53devolverPromedioAreasTest_matrizApagada_enAdy8_1_TestC2Ev
FNDA:6,_ZN53devolverPromedioAreasTest_matrizApagada_enAdy8_2_TestD0Ev
FNDA:6,_ZN53devolverPromedioAreasTest_matrizApagada_enAdy8_2_TestD2Ev
FNDA:6,_ZN53devolverPromedioAreasTest_matrizApagada_enAdy8_2_Test8TestBodyEv
FNDA:6,_ZN53devolverPromedioAreasTest_matrizApagada_enAdy8_2_TestC2Ev
FNDA:6,_ZN57devolverPromedioAreasTest_regionesDeUnPixel_EnAdy4_1_TestD0Ev
FNDA:6,_ZN57devolverPromedioAreasTest_regionesDeUnPixel_EnAdy4_1_TestD2Ev
FNDA:6,_ZN57devolverPromedioAreasTest_regionesDeUnPixel_EnAdy4_1_Test8TestBodyEv
FNDA:6,_ZN57devolverPromedioAreasTest_regionesDeUnPixel_EnAdy4_1_TestC2Ev
FNDA:6,_ZN57devolverPromedioAreasTest_regionesDeUnPixel_EnAdy4_2_TestD0Ev
FNDA:6,_ZN57devolverPromedioAreasTest_regionesDeUnPixel_EnAdy4_2_TestD2Ev
FNDA:6,_ZN57devolverPromedioAreasTest_regionesDeUnPixel_EnAdy4_2_Test8TestBodyEv
FNDA:6,_ZN57devolverPromedioAreasTest_regionesDeUnPixel_EnAdy4_2_TestC2Ev
FNDA:6,_ZN57devolverPromedioAreasTest_regionesDeUnPixel_EnAdy4_3_TestD0Ev
FNDA:6,_ZN57devolverPromedioAreasTest_regionesDeUnPixel_EnAdy4_3_TestD2Ev
FNDA:6,_ZN57devolverPromedioAreasTest_regionesDeUnPixel_EnAdy4_3_Test8TestBodyEv
FNDA:6,_ZN57devolverPromedioAreasTest_regionesDeUnPixel_EnAdy4_3_TestC2Ev
FNDA:6,_ZN57devolverPromedioAreasTest_regionesDeUnPixel_EnAdy8_1_TestD0Ev
FNDA:6,_ZN57devolverPromedioAreasTest_regionesDeUnPixel_EnAdy8_1_TestD2Ev
FNDA:6,_ZN57devolverPromedioAreasTest_regionesDeUnPixel_EnAdy8_1_Test8TestBodyEv
FNDA:6,_ZN57devolverPromedioAreasTest_regionesDeUnPixel_EnAdy8_1_TestC2Ev
FNDA:6,_ZN51devolverPromedioAreasTest_MatrizActivaEnAdy4_3_TestD0Ev
FNDA:6,_ZN51devolverPromedioAreasTest_MatrizActivaEnAdy4_3_TestD2Ev
FNDA:6,_ZN51devolverPromedioAreasTest_MatrizActivaEnAdy4_3_Test8TestBodyEv
FNDA:6,_ZN51devolverPromedioAreasTest_MatrizActivaEnAdy4_3_TestC2Ev
FNDA:6,_ZN51devolverPromedioAreasTest_MatrizActivaEnAdy8_1_TestD0Ev
FNDA:6,_ZN51devolverPromedioAreasTest_MatrizActivaEnAdy8_1_TestD2Ev
FNDA:6,_ZN51devolverPromedioAreasTest_MatrizActivaEnAdy8_1_Test8TestBodyEv
FNDA:6,_ZN51devolverPromedioAreasTest_MatrizActivaEnAdy8_1_TestC2Ev
FNDA:6,_ZN51devolverPromedioAreasTest_regionEnteraEnAdy4_1_TestD0Ev
FNDA:6,_ZN51devolverPromedioAreasTest_regionEnteraEnAdy4_1_TestD2Ev
FNDA:6,_ZN51devolverPromedioAreasTest_regionEnteraEnAdy4_1_Test8TestBodyEv
FNDA:6,_ZN51devolverPromedioAreasTest_regionEnteraEnAdy4_1_TestC2Ev
FNDA:6,_ZN51devolverPromedioAreasTest_regionEnteraEnAdy4_3_TestD0Ev
FNDA:6,_ZN51devolverPromedioAreasTest_regionEnteraEnAdy4_3_TestD2Ev
FNDA:6,_ZN51devolverPromedioAreasTest_regionEnteraEnAdy4_3_Test8TestBodyEv
FNDA:6,_ZN51devolverPromedioAreasTest_regionEnteraEnAdy4_3_TestC2Ev
FNDA:6,_ZN51devolverPromedioAreasTest_regionEnteraEnAdy8_1_TestD0Ev
FNDA:6,_ZN51devolverPromedioAreasTest_regionEnteraEnAdy8_1_TestD2Ev
FNDA:6,_ZN51devolverPromedioAreasTest_regionEnteraEnAdy8_1_Test8TestBodyEv
FNDA:6,_ZN51devolverPromedioAreasTest_regionEnteraEnAdy8_1_TestC2Ev
FNDA:6,_ZN51devolverPromedioAreasTest_regionEnteraEnAdy8_3_TestD0Ev
FNDA:6,_ZN51devolverPromedioAreasTest_regionEnteraEnAdy8_3_TestD2Ev
FNDA:6,_ZN51devolverPromedioAreasTest_regionEnteraEnAdy8_3_Test8TestBodyEv
FNDA:6,_ZN51devolverPromedioAreasTest_regionEnteraEnAdy8_3_TestC2Ev
FNDA:6,_ZN54devolverPromedioAreasTest_promedioDecimalEnAdy4_2_TestD0Ev
FNDA:6,_ZN54devolverPromedioAreasTest_promedioDecimalEnAdy4_2_TestD2Ev
FNDA:6,_ZN54devolverPromedioAreasTest_promedioDecimalEnAdy4_2_Test8TestBodyEv
FNDA:6,_ZN54devolverPromedioAreasTest_promedioDecimalEnAdy4_2_TestC2Ev
FNDA:6,_ZN54devolverPromedioAreasTest_promedioDecimalEnAdy4_3_TestD0Ev
FNDA:6,_ZN54devolverPromedioAreasTest_promedioDecimalEnAdy4_3_TestD2Ev
FNDA:6,_ZN54devolverPromedioAreasTest_promedioDecimalEnAdy4_3_Test8TestBodyEv
FNDA:6,_ZN54devolverPromedioAreasTest_promedioDecimalEnAdy4_3_TestC2Ev
FNDA:6,_ZN54devolverPromedioAreasTest_promedioDecimalEnAdy8_1_TestD0Ev
FNDA:6,_ZN54devolverPromedioAreasTest_promedioDecimalEnAdy8_1_TestD2Ev
FNDA:6,_ZN54devolverPromedioAreasTest_promedioDecimalEnAdy8_1_Test8TestBodyEv
FNDA:6,_ZN54devolverPromedioAreasTest_promedioDecimalEnAdy8_1_TestC2Ev
FNDA:6,_ZN54devolverPromedioAreasTest_promedioDecimalEnAdy8_3_TestD0Ev
FNDA:6,_ZN54devolverPromedioAreasTest_promedioDecimalEnAdy8_3_TestD2Ev
FNDA:6,_ZN54devolverPromedioAreasTest_promedioDecimalEnAdy8_3_Test8TestBodyEv
FNDA:6,_ZN54devolverPromedioAreasTest_promedioDecimalEnAdy8_3_TestC2Ev
FNDA:6,_GLOBAL__sub_I_abs_error
FNDA:6,_Z41__static_initialization_and_destruction_0ii
FNF:74
FNH:74
DA:8,30
DA:9,12
DA:10,6
DA:11,6
DA:13,30
DA:14,12
DA:15,6
DA:16,6
DA:20,30
DA:21,12
DA:22,6
DA:23,6
DA:25,30
DA:26,12
DA:27,6
DA:28,6
DA:32,30
DA:33,12
DA:34,6
DA:35,6
DA:37,30
DA:38,12
DA:39,6
DA:40,6
DA:42,30
DA:43,12
DA:44,6
DA:45,6
DA:49,30
DA:50,12
DA:51,6
DA:52,6
DA:58,30
DA:59,12
DA:60,6
DA:61,6
DA:66,30
DA:67,12
DA:68,6
DA:69,6
DA:72,30
DA:73,12
DA:74,6
DA:75,6
DA:77,30
DA:78,12
DA:79,6
DA:80,6
DA:82,30
DA:83,12
DA:84,6
DA:85,6
DA:87,30
DA:88,12
DA:89,6
DA:90,6
DA:94,30
DA:95,12
DA:96,6
DA:97,6
DA:99,30
DA:100,12
DA:101,6
DA:102,6
DA:106,30
DA:107,12
DA:108,6
DA:109,6
DA:111,30
DA:112,12
DA:113,6
DA:114,24
LF:72
LH:72
end_of_record
SF:/usr/include/c++/7/bits/alloc_traits.h
FN:435,_ZNSt16allocator_traitsISaISt6vectorIiSaIiEEEE8allocateERS3_m
FN:435,_ZNSt16allocator_traitsISaIiEE8allocateERS0_m
FN:461,_ZNSt16allocator_traitsISaIiEE10deallocateERS0_Pim
FN:461,_ZNSt16allocator_traitsISaISt6vectorIiSaIiEEEE10deallocateERS3_PS2_m
FN:504,_ZNSt16allocator_traitsISaIiEE37select_on_container_copy_constructionERKS0_
FNDA:0,_ZNSt16allocator_traitsISaISt6vectorIiSaIiEEEE8allocateERS3_m
FNDA:0,_ZNSt16allocator_traitsISaIiEE8allocateERS0_m
FNDA:0,_ZNSt16allocator_traitsISaISt6vectorIiSaIiEEEE10deallocateERS3_PS2_m
FNDA:0,_ZNSt16allocator_traitsISaIiEE10deallocateERS0_Pim
FNDA:0,_ZNSt16allocator_traitsISaIiEE37select_on_container_copy_constructionERKS0_
FNF:5
FNH:0
DA:435,0
DA:436,0
DA:461,0
DA:462,0
DA:504,0
DA:505,0
LF:6
LH:0
end_of_record
SF:/usr/include/c++/7/bits/allocator.h
FN:131,_ZNSaISt6vectorIiSaIiEEEC2Ev
FN:131,_ZNSaIiEC2Ev
FN:133,_ZNSaISt6vectorIiSaIiEEEC2ERKS2_
FN:133,_ZNSaIiEC2ERKS_
FN:139,_ZNSaISt6vectorIiSaIiEEED2Ev
FN:139,_ZNSaIiED2Ev
FNDA:0,_ZNSaISt6vectorIiSaIiEEEC2Ev
FNDA:0,_ZNSaIiEC2Ev
FNDA:0,_ZNSaISt6vectorIiSaIiEEEC2ERKS2_
FNDA:0,_ZNSaIiEC2ERKS_
FNDA:0,_ZNSaISt6vectorIiSaIiEEED2Ev
FNDA:0,_ZNSaIiED2Ev
FNF:6
FNH:0
DA:131,0
DA:133,0
DA:134,0
DA:139,0
LF:4
LH:0
end_of_record
SF:/usr/include/c++/7/bits/cpp_type_traits.h
FN:408,_ZSt12__miter_baseIN9__gnu_cxx17__normal_iteratorIPKiSt6vectorIiSaIiEEEEET_S8_
FN:408,_ZSt12__miter_baseIPKiET_S2_
FNDA:0,_ZSt12__miter_baseIN9__gnu_cxx17__normal_iteratorIPKiSt6vectorIiSaIiEEEEET_S8_
FNDA:0,_ZSt12__miter_baseIPKiET_S2_
FNF:2
FNH:0
DA:408,0
DA:409,0
LF:2
LH:0
end_of_record
SF:/usr/include/c++/7/bits/move.h
FN:47,_ZSt11__addressofISt6vectorIiSaIiEEEPT_RS3_
FN:73,_ZSt7forwardIRKSt6vectorIiSaIiEEEOT_RNSt16remove_referenceIS5_E4typeE
FNDA:0,_ZSt11__addressofISt6vectorIiSaIiEEEPT_RS3_
FNDA:0,_ZSt7forwardIRKSt6vectorIiSaIiEEEOT_RNSt16remove_referenceIS5_E4typeE
FNF:2
FNH:0
DA:47,0
DA:48,0
DA:73,0
DA:74,0
LF:4
LH:0
end_of_record
SF:/usr/include/c++/7/bits/stl_algobase.h
FN:277,_ZSt12__niter_baseIPiET_S1_
FN:277,_ZSt12__niter_baseIPKiET_S2_
FN:357,_ZNSt11__copy_moveILb0ELb1ESt26random_access_iterator_tagE8__copy_mIiEEPT_PKS3_S6_S4_
FN:375,_ZSt13__copy_move_aILb0EPKiPiET1_T0_S4_S3_
FN:420,_ZSt14__copy_move_a2ILb0EN9__gnu_cxx17__normal_iteratorIPKiSt6vectorIiSaIiEEEEPiET1_T0_SA_S9_
FN:420,_ZSt14__copy_move_a2ILb0EPKiPiET1_T0_S4_S3_
FN:446,_ZSt4copyIN9__gnu_cxx17__normal_iteratorIPKiSt6vectorIiSaIiEEEEPiET0_T_SA_S9_
FN:446,_ZSt4copyIPKiPiET0_T_S4_S3_
FNDA:0,_ZSt12__niter_baseIPiET_S1_
FNDA:0,_ZSt12__niter_baseIPKiET_S2_
FNDA:0,_ZNSt11__copy_moveILb0ELb1ESt26random_access_iterator_tagE8__copy_mIiEEPT_PKS3_S6_S4_
FNDA:0,_ZSt13__copy_move_aILb0EPKiPiET1_T0_S4_S3_
FNDA:0,_ZSt14__copy_move_a2ILb0EN9__gnu_cxx17__normal_iteratorIPKiSt6vectorIiSaIiEEEEPiET1_T0_SA_S9_
FNDA:0,_ZSt14__copy_move_a2ILb0EPKiPiET1_T0_S4_S3_
FNDA:0,_ZSt4copyIN9__gnu_cxx17__normal_iteratorIPKiSt6vectorIiSaIiEEEEPiET0_T_SA_S9_
FNDA:0,_ZSt4copyIPKiPiET0_T_S4_S3_
FNF:8
FNH:0
DA:277,0
DA:278,0
DA:357,0
DA:366,0
DA:367,0
DA:368,0
DA:369,0
DA:375,0
DA:380,0
DA:386,0
DA:420,0
DA:422,0
DA:424,0
DA:446,0
DA:455,0
DA:456,0
LF:16
LH:0
end_of_record
SF:/usr/include/c++/7/bits/stl_construct.h
FN:74,_ZSt10_ConstructISt6vectorIiSaIiEEJRKS2_EEvPT_DpOT0_
FN:97,_ZSt8_DestroyISt6vectorIiSaIiEEEvPT_
FN:105,_ZNSt12_Destroy_auxILb0EE9__destroyIPSt6vectorIiSaIiEEEEvT_S6_
FN:117,_ZNSt12_Destroy_auxILb1EE9__destroyIPiEEvT_S3_
FN:127,_ZSt8_DestroyIPiEvT_S1_
FN:127,_ZSt8_DestroyIPSt6vectorIiSaIiEEEvT_S4_
FN:203,_ZSt8_DestroyIPSt6vectorIiSaIiEES2_EvT_S4_RSaIT0_E
FN:203,_ZSt8_DestroyIPiiEvT_S1_RSaIT0_E
FNDA:0,_ZSt10_ConstructISt6vectorIiSaIiEEJRKS2_EEvPT_DpOT0_
FNDA:0,_ZSt8_DestroyISt6vectorIiSaIiEEEvPT_
FNDA:0,_ZNSt12_Destroy_auxILb0EE9__destroyIPSt6vectorIiSaIiEEEEvT_S6_
FNDA:0,_ZNSt12_Destroy_auxILb1EE9__destroyIPiEEvT_S3_
FNDA:0,_ZSt8_DestroyIPSt6vectorIiSaIiEEEvT_S4_
FNDA:0,_ZSt8_DestroyIPiEvT_S1_
FNDA:0,_ZSt8_DestroyIPSt6vectorIiSaIiEES2_EvT_S4_RSaIT0_E
FNDA:0,_ZSt8_DestroyIPiiEvT_S1_RSaIT0_E
FNF:8
FNH:0
DA:74,0
DA:75,0
DA:97,0
DA:98,0
DA:105,0
DA:107,0
DA:108,0
DA:109,0
DA:117,0
DA:127,0
DA:137,0
DA:138,0
DA:203,0
DA:206,0
DA:207,0
LF:15
LH:0
end_of_record
SF:/usr/include/c++/7/bits/stl_iterator.h
FN:782,_ZN9__gnu_cxx17__normal_iteratorIPKiSt6vectorIiSaIiEEEC2ERKS2_
FN:847,_ZNK9__gnu_cxx17__normal_iteratorIPKiSt6vectorIiSaIiEEE4baseEv
FN:986,_ZSt12__niter_baseIPKiSt6vectorIiSaIiEEET_N9__gnu_cxx17__normal_iteratorIS5_T0_EE
FNDA:0,_ZN9__gnu_cxx17__normal_iteratorIPKiSt6vectorIiSaIiEEEC2ERKS2_
FNDA:0,_ZNK9__gnu_cxx17__normal_iteratorIPKiSt6vectorIiSaIiEEE4baseEv
FNDA:0,_ZSt12__niter_baseIPKiSt6vectorIiSaIiEEET_N9__gnu_cxx17__normal_iteratorIS5_T0_EE
FNF:3
FNH:0
DA:782,0
DA:783,0
DA:847,0
DA:848,0
DA:986,0
DA:987,0
LF:6
LH:0
end_of_record
SF:/usr/include/c++/7/bits/stl_iterator_base_funcs.h
FN:98,_ZSt10__distanceIPKiENSt15iterator_traitsIT_E15difference_typeES3_S3_St26random_access_iterator_tag
FN:98,_ZSt10__distanceIPKSt6vectorIiSaIiEEENSt15iterator_traitsIT_E15difference_typeES6_S6_St26random_access_iterator_tag
FN:138,_ZSt8distanceIPKiENSt15iterator_traitsIT_E15difference_typeES3_S3_
FN:138,_ZSt8distanceIPKSt6vectorIiSaIiEEENSt15iterator_traitsIT_E15difference_typeES6_S6_
FNDA:0,_ZSt10__distanceIPKSt6vectorIiSaIiEEENSt15iterator_traitsIT_E15difference_typeES6_S6_St26random_access_iterator_tag
FNDA:0,_ZSt10__distanceIPKiENSt15iterator_traitsIT_E15difference_typeES3_S3_St26random_access_iterator_tag
FNDA:0,_ZSt8distanceIPKSt6vectorIiSaIiEEENSt15iterator_traitsIT_E15difference_typeES6_S6_
FNDA:0,_ZSt8distanceIPKiENSt15iterator_traitsIT_E15difference_typeES3_S3_
FNF:4
FNH:0
DA:98,0
DA:104,0
DA:138,0
DA:141,0
DA:142,0
LF:5
LH:0
end_of_record
SF:/usr/include/c++/7/bits/stl_iterator_base_types.h
FN:205,_ZSt19__iterator_categoryIPKiENSt15iterator_traitsIT_E17iterator_categoryERKS3_
FN:205,_ZSt19__iterator_categoryIPKSt6vectorIiSaIiEEENSt15iterator_traitsIT_E17iterator_categoryERKS6_
FNDA:0,_ZSt19__iterator_categoryIPKSt6vectorIiSaIiEEENSt15iterator_traitsIT_E17iterator_categoryERKS6_
FNDA:0,_ZSt19__iterator_categoryIPKiENSt15iterator_traitsIT_E17iterator_categoryERKS3_
FNF:2
FNH:0
DA:205,0
DA:206,0
LF:2
LH:0
end_of_record
SF:/usr/include/c++/7/bits/stl_uninitialized.h
FN:76,_ZNSt20__uninitialized_copyILb0EE13__uninit_copyIPKSt6vectorIiSaIiEEPS4_EET0_T_S9_S8_
FN:99,_ZNSt20__uninitialized_copyILb1EE13__uninit_copyIPKiPiEET0_T_S6_S5_
FN:99,_ZNSt20__uninitialized_copyILb1EE13__uninit_copyIN9__gnu_cxx17__normal_iteratorIPKiSt6vectorIiSaIiEEEEPiEET0_T_SC_SB_
FN:115,_ZSt18uninitialized_copyIN9__gnu_cxx17__normal_iteratorIPKiSt6vectorIiSaIiEEEEPiET0_T_SA_S9_
FN:115,_ZSt18uninitialized_copyIPKiPiET0_T_S4_S3_
FN:115,_ZSt18uninitialized_copyIPKSt6vectorIiSaIiEEPS2_ET0_T_S7_S6_
FN:287,_ZSt22__uninitialized_copy_aIPKiPiiET0_T_S4_S3_RSaIT1_E
FN:287,_ZSt22__uninitialized_copy_aIN9__gnu_cxx17__normal_iteratorIPKiSt6vectorIiSaIiEEEEPiiET0_T_SA_S9_RSaIT1_E
FN:287,_ZSt22__uninitialized_copy_aIPKSt6vectorIiSaIiEEPS2_S2_ET0_T_S7_S6_RSaIT1_E
FNDA:0,_ZNSt20__uninitialized_copyILb0EE13__uninit_copyIPKSt6vectorIiSaIiEEPS4_EET0_T_S9_S8_
FNDA:0,_ZNSt20__uninitialized_copyILb1EE13__uninit_copyIN9__gnu_cxx17__normal_iteratorIPKiSt6vectorIiSaIiEEEEPiEET0_T_SC_SB_
FNDA:0,_ZNSt20__uninitialized_copyILb1EE13__uninit_copyIPKiPiEET0_T_S6_S5_
FNDA:0,_ZSt18uninitialized_copyIN9__gnu_cxx17__normal_iteratorIPKiSt6vectorIiSaIiEEEEPiET0_T_SA_S9_
FNDA:0,_ZSt18uninitialized_copyIPKSt6vectorIiSaIiEEPS2_ET0_T_S7_S6_
FNDA:0,_ZSt18uninitialized_copyIPKiPiET0_T_S4_S3_
FNDA:0,_ZSt22__uninitialized_copy_aIN9__gnu_cxx17__normal_iteratorIPKiSt6vectorIiSaIiEEEEPiiET0_T_SA_S9_RSaIT1_E
FNDA:0,_ZSt22__uninitialized_copy_aIPKSt6vectorIiSaIiEEPS2_S2_ET0_T_S7_S6_RSaIT1_E
FNDA:0,_ZSt22__uninitialized_copy_aIPKiPiiET0_T_S4_S3_RSaIT1_E
FNF:9
FNH:0
DA:76,0
DA:79,0
DA:82,0
DA:83,0
DA:84,0
DA:86,0
DA:88,0
DA:89,0
DA:99,0
DA:101,0
DA:115,0
DA:128,0
DA:134,0
DA:287,0
DA:289,0
LF:15
LH:0
end_of_record
SF:/usr/include/c++/7/bits/stl_vector.h
FN:81,_ZNSt12_Vector_baseIiSaIiEE12_Vector_implD2Ev
FN:81,_ZNSt12_Vector_baseISt6vectorIiSaIiEESaIS2_EE12_Vector_implD2Ev
FN:92,_ZNSt12_Vector_baseIiSaIiEE12_Vector_implC2ERKS0_
FN:92,_ZNSt12_Vector_baseISt6vectorIiSaIiEESaIS2_EE12_Vector_implC2ERKS3_
FN:115,_ZNSt12_Vector_baseISt6vectorIiSaIiEESaIS2_EE19_M_get_Tp_allocatorEv
FN:115,_ZNSt12_Vector_baseIiSaIiEE19_M_get_Tp_allocatorEv
FN:119,_ZNKSt12_Vector_baseIiSaIiEE19_M_get_Tp_allocatorEv
FN:129,_ZNSt12_Vector_baseISt6vectorIiSaIiEESaIS2_EEC2ERKS3_
FN:129,_ZNSt12_Vector_baseIiSaIiEEC2ERKS0_
FN:136,_ZNSt12_Vector_baseIiSaIiEEC2EmRKS0_
FN:161,_ZNSt12_Vector_baseISt6vectorIiSaIiEESaIS2_EED2Ev
FN:161,_ZNSt12_Vector_baseIiSaIiEED2Ev
FN:169,_ZNSt12_Vector_baseIiSaIiEE11_M_allocateEm
FN:169,_ZNSt12_Vector_baseISt6vectorIiSaIiEESaIS2_EE11_M_allocateEm
FN:176,_ZNSt12_Vector_baseIiSaIiEE13_M_deallocateEPim
FN:176,_ZNSt12_Vector_baseISt6vectorIiSaIiEESaIS2_EE13_M_deallocateEPS2_m
FN:185,_ZNSt12_Vector_baseIiSaIiEE17_M_create_storageEm
FN:326,_ZNSt6vectorIiSaIiEEC2ERKS1_
FN:383,_ZNSt6vectorIiSaIiEEC2ESt16initializer_listIiERKS0_
FN:383,_ZNSt6vectorIS_IiSaIiEESaIS1_EEC2ESt16initializer_listIS1_ERKS2_
FN:433,_ZNSt6vectorIS_IiSaIiEESaIS1_EED2Ev
FN:433,_ZNSt6vectorIiSaIiEED2Ev
FN:572,_ZNKSt6vectorIiSaIiEE5beginEv
FN:590,_ZNKSt6vectorIiSaIiEE3endEv
FN:670,_ZNKSt6vectorIiSaIiEE4sizeEv
FN:1324,_ZNSt6vectorIiSaIiEE19_M_range_initializeIPKiEEvT_S5_St20forward_iterator_tag
FN:1324,_ZNSt6vectorIS_IiSaIiEESaIS1_EE19_M_range_initializeIPKS1_EEvT_S7_St20forward_iterator_tag
FNDA:0,_ZNSt12_Vector_baseISt6vectorIiSaIiEESaIS2_EE12_Vector_implD2Ev
FNDA:0,_ZNSt12_Vector_baseIiSaIiEE12_Vector_implD2Ev
FNDA:0,_ZNSt12_Vector_baseISt6vectorIiSaIiEESaIS2_EE12_Vector_implC2ERKS3_
FNDA:0,_ZNSt12_Vector_baseIiSaIiEE12_Vector_implC2ERKS0_
FNDA:0,_ZNSt12_Vector_baseISt6vectorIiSaIiEESaIS2_EE19_M_get_Tp_allocatorEv
FNDA:0,_ZNSt12_Vector_baseIiSaIiEE19_M_get_Tp_allocatorEv
FNDA:0,_ZNKSt12_Vector_baseIiSaIiEE19_M_get_Tp_allocatorEv
FNDA:0,_ZNSt12_Vector_baseISt6vectorIiSaIiEESaIS2_EEC2ERKS3_
FNDA:0,_ZNSt12_Vector_baseIiSaIiEEC2ERKS0_
FNDA:0,_ZNSt12_Vector_baseIiSaIiEEC2EmRKS0_
FNDA:0,_ZNSt12_Vector_baseISt6vectorIiSaIiEESaIS2_EED2Ev
FNDA:0,_ZNSt12_Vector_baseIiSaIiEED2Ev
FNDA:0,_ZNSt12_Vector_baseISt6vectorIiSaIiEESaIS2_EE11_M_allocateEm
FNDA:0,_ZNSt12_Vector_baseIiSaIiEE11_M_allocateEm
FNDA:0,_ZNSt12_Vector_baseISt6vectorIiSaIiEESaIS2_EE13_M_deallocateEPS2_m
FNDA:0,_ZNSt12_Vector_baseIiSaIiEE13_M_deallocateEPim
FNDA:0,_ZNSt12_Vector_baseIiSaIiEE17_M_create_storageEm
FNDA:0,_ZNSt6vectorIiSaIiEEC2ERKS1_
FNDA:0,_ZNSt6vectorIS_IiSaIiEESaIS1_EEC2ESt16initializer_listIS1_ERKS2_
FNDA:0,_ZNSt6vectorIiSaIiEEC2ESt16initializer_listIiERKS0_
FNDA:0,_ZNSt6vectorIS_IiSaIiEESaIS1_EED2Ev
FNDA:0,_ZNSt6vectorIiSaIiEED2Ev
FNDA:0,_ZNKSt6vectorIiSaIiEE5beginEv
FNDA:0,_ZNKSt6vectorIiSaIiEE3endEv
FNDA:0,_ZNKSt6vectorIiSaIiEE4sizeEv
FNDA:0,_ZNSt6vectorIS_IiSaIiEESaIS1_EE19_M_range_initializeIPKS1_EEvT_S7_St20forward_iterator_tag
FNDA:0,_ZNSt6vectorIiSaIiEE19_M_range_initializeIPKiEEvT_S5_St20forward_iterator_tag
FNF:27
FNH:0
DA:81,0
DA:92,0
DA:93,0
DA:94,0
DA:115,0
DA:116,0
DA:119,0
DA:120,0
DA:129,0
DA:130,0
DA:136,0
DA:137,0
DA:138,0
DA:161,0
DA:162,0
DA:163,0
DA:169,0
DA:172,0
DA:176,0
DA:179,0
DA:180,0
DA:181,0
DA:185,0
DA:187,0
DA:188,0
DA:189,0
DA:190,0
DA:326,0
DA:328,0
DA:330,0
DA:331,0
DA:333,0
DA:334,0
DA:383,0
DA:385,0
DA:387,0
DA:389,0
DA:433,0
DA:434,0
DA:435,0
DA:572,0
DA:573,0
DA:590,0
DA:591,0
DA:670,0
DA:671,0
DA:1324,0
DA:1327,0
DA:1328,0
DA:1329,0
DA:1330,0
DA:1331,0
DA:1333,0
DA:1334,0
LF:54
LH:0
end_of_record
SF:/usr/include/c++/7/ext/alloc_traits.h
FN:94,_ZN9__gnu_cxx14__alloc_traitsISaIiEE17_S_select_on_copyERKS1_
FNDA:0,_ZN9__gnu_cxx14__alloc_traitsISaIiEE17_S_select_on_copyERKS1_
FNF:1
FNH:0
DA:94,0
DA:95,0
LF:2
LH:0
end_of_record
SF:/usr/include/c++/7/ext/new_allocator.h
FN:79,_ZN9__gnu_cxx13new_allocatorIiEC2Ev
FN:79,_ZN9__gnu_cxx13new_allocatorISt6vectorIiSaIiEEEC2Ev
FN:81,_ZN9__gnu_cxx13new_allocatorISt6vectorIiSaIiEEEC2ERKS4_
FN:81,_ZN9__gnu_cxx13new_allocatorIiEC2ERKS1_
FN:86,_ZN9__gnu_cxx13new_allocatorISt6vectorIiSaIiEEED2Ev
FN:86,_ZN9__gnu_cxx13new_allocatorIiED2Ev
FN:99,_ZN9__gnu_cxx13new_allocatorISt6vectorIiSaIiEEE8allocateEmPKv
FN:99,_ZN9__gnu_cxx13new_allocatorIiE8allocateEmPKv
FN:116,_ZN9__gnu_cxx13new_allocatorISt6vectorIiSaIiEEE10deallocateEPS3_m
FN:116,_ZN9__gnu_cxx13new_allocatorIiE10deallocateEPim
FN:129,_ZNK9__gnu_cxx13new_allocatorIiE8max_sizeEv
FN:129,_ZNK9__gnu_cxx13new_allocatorISt6vectorIiSaIiEEE8max_sizeEv
FNDA:0,_ZN9__gnu_cxx13new_allocatorISt6vectorIiSaIiEEEC2Ev
FNDA:0,_ZN9__gnu_cxx13new_allocatorIiEC2Ev
FNDA:0,_ZN9__gnu_cxx13new_allocatorISt6vectorIiSaIiEEEC2ERKS4_
FNDA:0,_ZN9__gnu_cxx13new_allocatorIiEC2ERKS1_
FNDA:0,_ZN9__gnu_cxx13new_allocatorISt6vectorIiSaIiEEED2Ev
FNDA:0,_ZN9__gnu_cxx13new_allocatorIiED2Ev
FNDA:0,_ZN9__gnu_cxx13new_allocatorISt6vectorIiSaIiEEE8allocateEmPKv
FNDA:0,_ZN9__gnu_cxx13new_allocatorIiE8allocateEmPKv
FNDA:0,_ZN9__gnu_cxx13new_allocatorISt6vectorIiSaIiEEE10deallocateEPS3_m
FNDA:0,_ZN9__gnu_cxx13new_allocatorIiE10deallocateEPim
FNDA:0,_ZNK9__gnu_cxx13new_allocatorISt6vectorIiSaIiEEE8max_sizeEv
FNDA:0,_ZNK9__gnu_cxx13new_allocatorIiE8max_sizeEv
FNF:12
FNH:0
DA:79,0
DA:81,0
DA:86,0
DA:99,0
DA:101,0
DA:102,0
DA:111,0
DA:116,0
DA:125,0
DA:126,0
DA:129,0
DA:130,0
LF:12
LH:0
end_of_record
SF:/usr/include/c++/7/initializer_list
FN:71,_ZNKSt16initializer_listISt6vectorIiSaIiEEE4sizeEv
FN:71,_ZNKSt16initializer_listIiE4sizeEv
FN:75,_ZNKSt16initializer_listIiE5beginEv
FN:75,_ZNKSt16initializer_listISt6vectorIiSaIiEEE5beginEv
FN:79,_ZNKSt16initializer_listIiE3endEv
FN:79,_ZNKSt16initializer_listISt6vectorIiSaIiEEE3endEv
FNDA:0,_ZNKSt16initializer_listISt6vectorIiSaIiEEE4sizeEv
FNDA:0,_ZNKSt16initializer_listIiE4sizeEv
FNDA:0,_ZNKSt16initializer_listISt6vectorIiSaIiEEE5beginEv
FNDA:0,_ZNKSt16initializer_listIiE5beginEv
FNDA:0,_ZNKSt16initializer_listISt6vectorIiSaIiEEE3endEv
FNDA:0,_ZNKSt16initializer_listIiE3endEv
FNF:6
FNH:0
DA:71,0
DA:75,0
DA:79,0
LF:3
LH:0
end_of_record
SF:/usr/include/c++/7/iostream
DA:74,6
LF:1
LH:1
end_of_record
SF:/usr/include/c++/7/new
FN:168,_ZnwmPv
FN:174,_ZdlPvS_
FNDA:0,_ZnwmPv
FNDA:0,_ZdlPvS_
FNF:2
FNH:0
DA:168,0
DA:169,0
DA:174,0
LF:3
LH:0
end_of_record
TN:
SF:/home/msaied/Documents/TPI-morfologia-matematica/lib/googletest-master/googletest/include/gtest/gtest-message.h
FN:85,_ZN7testing7MessageD2Ev
FNDA:0,_ZN7testing7MessageD2Ev
FNF:1
FNH:0
DA:85,0
LF:1
LH:0
end_of_record
SF:/home/msaied/Documents/TPI-morfologia-matematica/lib/googletest-master/googletest/include/gtest/gtest.h
FN:268,_ZN7testing15AssertionResultD2Ev
FN:286,_ZN7testing15AssertionResultC2IbEERKT_PNS_8internal8EnableIfIXntsrNS5_21ImplicitlyConvertibleIS2_S0_EE5valueEE4typeE
FN:304,_ZNK7testing15AssertionResultcvbEv
FN:414,_ZN7testing4Test13SetUpTestCaseEv
FN:422,_ZN7testing4Test16TearDownTestCaseEv
FN:499,_ZN7testing4Test5SetupEv
FNDA:0,_ZN7testing15AssertionResultD2Ev
FNDA:0,_ZN7testing15AssertionResultC2IbEERKT_PNS_8internal8EnableIfIXntsrNS5_21ImplicitlyConvertibleIS2_S0_EE5valueEE4typeE
FNDA:0,_ZNK7testing15AssertionResultcvbEv
FNDA:0,_ZN7testing4Test13SetUpTestCaseEv
FNDA:0,_ZN7testing4Test16TearDownTestCaseEv
FNDA:0,_ZN7testing4Test5SetupEv
FNF:6
FNH:0
DA:268,0
DA:286,0
DA:291,0
DA:304,0
DA:414,0
DA:422,0
DA:499,0
LF:7
LH:0
end_of_record
SF:/home/msaied/Documents/TPI-morfologia-matematica/lib/googletest-master/googletest/include/gtest/internal/gtest-internal.h
FN:448,_ZN7testing8internal15TestFactoryBaseD0Ev
FN:448,_ZN7testing8internal15TestFactoryBaseD2Ev
FN:455,_ZN7testing8internal15TestFactoryBaseC2Ev
FN:464,_ZN7testing8internal15TestFactoryImplI56calcularContornoTest_CalcularContornoTodoActivo8Ady_TestEC2Ev
FN:464,_ZN7testing8internal15TestFactoryImplI50calcularContornoTest_CalcularContornoCruz8Ady_TestED2Ev
FN:464,_ZN7testing8internal15TestFactoryImplI50calcularContornoTest_CalcularContornoCruz8Ady_TestEC2Ev
FN:464,_ZN7testing8internal15TestFactoryImplI50calcularContornoTest_CalcularContornoCruz4Ady_TestED0Ev
FN:464,_ZN7testing8internal15TestFactoryImplI56calcularContornoTest_CalcularContornoTodoActivo8Ady_TestED0Ev
FN:464,_ZN7testing8internal15TestFactoryImplI56calcularContornoTest_CalcularContornoTodoActivo4Ady_TestED0Ev
FN:464,_ZN7testing8internal15TestFactoryImplI50calcularContornoTest_CalcularContornoCruz4Ady_TestED2Ev
FN:464,_ZN7testing8internal15TestFactoryImplI56calcularContornoTest_CalcularContornoTodoActivo4Ady_TestED2Ev
FN:464,_ZN7testing8internal15TestFactoryImplI50calcularContornoTest_CalcularContornoCruz4Ady_TestEC2Ev
FN:464,_ZN7testing8internal15TestFactoryImplI56calcularContornoTest_CalcularContornoTodoActivo8Ady_TestED2Ev
FN:464,_ZN7testing8internal15TestFactoryImplI56calcularContornoTest_CalcularContornoTodoActivo4Ady_TestEC2Ev
FN:464,_ZN7testing8internal15TestFactoryImplI50calcularContornoTest_CalcularContornoCruz8Ady_TestED0Ev
FN:466,_ZN7testing8internal15TestFactoryImplI56calcularContornoTest_CalcularContornoTodoActivo4Ady_TestE10CreateTestEv
FN:466,_ZN7testing8internal15TestFactoryImplI50calcularContornoTest_CalcularContornoCruz4Ady_TestE10CreateTestEv
FN:466,_ZN7testing8internal15TestFactoryImplI50calcularContornoTest_CalcularContornoCruz8Ady_TestE10CreateTestEv
FN:466,_ZN7testing8internal15TestFactoryImplI56calcularContornoTest_CalcularContornoTodoActivo8Ady_TestE10CreateTestEv
FN:486,_ZN7testing8internal12CodeLocationD2Ev
FN:487,_ZN7testing8internal12CodeLocationC2ERKNSt7__cxx1112basic_stringIcSt11char_traitsIcESaIcEEEi
FNDA:0,_ZN7testing8internal15TestFactoryBaseD0Ev
FNDA:0,_ZN7testing8internal15TestFactoryBaseD2Ev
FNDA:0,_ZN7testing8internal15TestFactoryBaseC2Ev
FNDA:6,_ZN7testing8internal15TestFactoryImplI56calcularContornoTest_CalcularContornoTodoActivo4Ady_TestED0Ev
FNDA:6,_ZN7testing8internal15TestFactoryImplI56calcularContornoTest_CalcularContornoTodoActivo4Ady_TestED2Ev
FNDA:6,_ZN7testing8internal15TestFactoryImplI56calcularContornoTest_CalcularContornoTodoActivo8Ady_TestED0Ev
FNDA:6,_ZN7testing8internal15TestFactoryImplI56calcularContornoTest_CalcularContornoTodoActivo8Ady_TestED2Ev
FNDA:6,_ZN7testing8internal15TestFactoryImplI50calcularContornoTest_CalcularContornoCruz4Ady_TestED0Ev
FNDA:6,_ZN7testing8internal15TestFactoryImplI50calcularContornoTest_CalcularContornoCruz4Ady_TestED2Ev
FNDA:6,_ZN7testing8internal15TestFactoryImplI50calcularContornoTest_CalcularContornoCruz8Ady_TestED0Ev
FNDA:6,_ZN7testing8internal15TestFactoryImplI50calcularContornoTest_CalcularContornoCruz8Ady_TestED2Ev
FNDA:6,_ZN7testing8internal15TestFactoryImplI50calcularContornoTest_CalcularContornoCruz8Ady_TestEC2Ev
FNDA:6,_ZN7testing8internal15TestFactoryImplI50calcularContornoTest_CalcularContornoCruz4Ady_TestEC2Ev
FNDA:6,_ZN7testing8internal15TestFactoryImplI56calcularContornoTest_CalcularContornoTodoActivo8Ady_TestEC2Ev
FNDA:6,_ZN7testing8internal15TestFactoryImplI56calcularContornoTest_CalcularContornoTodoActivo4Ady_TestEC2Ev
FNDA:6,_ZN7testing8internal15TestFactoryImplI56calcularContornoTest_CalcularContornoTodoActivo4Ady_TestE10CreateTestEv
FNDA:6,_ZN7testing8internal15TestFactoryImplI56calcularContornoTest_CalcularContornoTodoActivo8Ady_TestE10CreateTestEv
FNDA:6,_ZN7testing8internal15TestFactoryImplI50calcularContornoTest_CalcularContornoCruz4Ady_TestE10CreateTestEv
FNDA:6,_ZN7testing8internal15TestFactoryImplI50calcularContornoTest_CalcularContornoCruz8Ady_TestE10CreateTestEv
FNDA:0,_ZN7testing8internal12CodeLocationD2Ev
FNDA:0,_ZN7testing8internal12CodeLocationC2ERKNSt7__cxx1112basic_stringIcSt11char_traitsIcESaIcEEEi
FNF:21
FNH:16
DA:448,0
DA:455,0
DA:464,72
DA:466,24
DA:486,0
DA:487,0
DA:488,0
LF:7
LH:2
end_of_record
SF:/home/msaied/Documents/TPI-morfologia-matematica/lib/googletest-master/googletest/include/gtest/internal/gtest-port.h
FN:1184,_ZN7testing8internal10scoped_ptrINSt7__cxx1112basic_stringIcSt11char_traitsIcESaIcEEEEC2EPS7_
FN:1185,_ZN7testing8internal10scoped_ptrINSt7__cxx1112basic_stringIcSt11char_traitsIcESaIcEEEED2Ev
FN:1185,_ZN7testing8internal10scoped_ptrINSt7__cxx1118basic_stringstreamIcSt11char_traitsIcESaIcEEEED2Ev
FN:1197,_ZN7testing8internal10scoped_ptrINSt7__cxx1112basic_stringIcSt11char_traitsIcESaIcEEEE5resetEPS7_
FN:1197,_ZN7testing8internal10scoped_ptrINSt7__cxx1118basic_stringstreamIcSt11char_traitsIcESaIcEEEE5resetEPS7_
FNDA:0,_ZN7testing8internal10scoped_ptrINSt7__cxx1112basic_stringIcSt11char_traitsIcESaIcEEEEC2EPS7_
FNDA:0,_ZN7testing8internal10scoped_ptrINSt7__cxx1112basic_stringIcSt11char_traitsIcESaIcEEEED2Ev
FNDA:0,_ZN7testing8internal10scoped_ptrINSt7__cxx1118basic_stringstreamIcSt11char_traitsIcESaIcEEEED2Ev
FNDA:0,_ZN7testing8internal10scoped_ptrINSt7__cxx1118basic_stringstreamIcSt11char_traitsIcESaIcEEEE5resetEPS7_
FNDA:0,_ZN7testing8internal10scoped_ptrINSt7__cxx1112basic_stringIcSt11char_traitsIcESaIcEEEE5resetEPS7_
FNF:5
FNH:0
DA:1184,0
DA:1185,0
DA:1197,0
DA:1198,0
DA:1199,0
DA:1200,0
DA:1202,0
DA:1204,0
LF:8
LH:0
end_of_record
SF:/home/msaied/Documents/TPI-morfologia-matematica/tests/ej4TEST.cpp
FN:5,_Z13sonLosActivosRKSt6vectorIS_IiSaIiEESaIS1_EES5_
FN:22,_ZN56calcularContornoTest_CalcularContornoTodoActivo4Ady_TestC2Ev
FN:22,_ZN56calcularContornoTest_CalcularContornoTodoActivo4Ady_TestD2Ev
FN:22,_ZN56calcularContornoTest_CalcularContornoTodoActivo4Ady_TestD0Ev
FN:22,_ZN56calcularContornoTest_CalcularContornoTodoActivo4Ady_Test8TestBodyEv
FN:38,_ZN56calcularContornoTest_CalcularContornoTodoActivo8Ady_Test8TestBodyEv
FN:38,_ZN56calcularContornoTest_CalcularContornoTodoActivo8Ady_TestD0Ev
FN:38,_ZN56calcularContornoTest_CalcularContornoTodoActivo8Ady_TestC2Ev
FN:38,_ZN56calcularContornoTest_CalcularContornoTodoActivo8Ady_TestD2Ev
FN:54,_ZN50calcularContornoTest_CalcularContornoCruz4Ady_TestD2Ev
FN:54,_ZN50calcularContornoTest_CalcularContornoCruz4Ady_Test8TestBodyEv
FN:54,_ZN50calcularContornoTest_CalcularContornoCruz4Ady_TestC2Ev
FN:54,_ZN50calcularContornoTest_CalcularContornoCruz4Ady_TestD0Ev
FN:74,_ZN50calcularContornoTest_CalcularContornoCruz8Ady_Test8TestBodyEv
FN:74,_ZN50calcularContornoTest_CalcularContornoCruz8Ady_TestD2Ev
FN:74,_ZN50calcularContornoTest_CalcularContornoCruz8Ady_TestC2Ev
FN:74,_ZN50calcularContornoTest_CalcularContornoCruz8Ady_TestD0Ev
FN:92,_GLOBAL__sub_I__Z13sonLosActivosRKSt6vectorIS_IiSaIiEESaIS1_EES5_
FN:92,_Z41__static_initialization_and_destruction_0ii
FNDA:24,_Z13sonLosActivosRKSt6vectorIS_IiSaIiEESaIS1_EES5_
FNDA:6,_ZN56calcularContornoTest_CalcularContornoTodoActivo4Ady_TestD0Ev
FNDA:6,_ZN56calcularContornoTest_CalcularContornoTodoActivo4Ady_TestD2Ev
FNDA:6,_ZN56calcularContornoTest_CalcularContornoTodoActivo4Ady_Test8TestBodyEv
FNDA:6,_ZN56calcularContornoTest_CalcularContornoTodoActivo4Ady_TestC2Ev
FNDA:6,_ZN56calcularContornoTest_CalcularContornoTodoActivo8Ady_TestD0Ev
FNDA:6,_ZN56calcularContornoTest_CalcularContornoTodoActivo8Ady_TestD2Ev
FNDA:6,_ZN56calcularContornoTest_CalcularContornoTodoActivo8Ady_Test8TestBodyEv
FNDA:6,_ZN56calcularContornoTest_CalcularContornoTodoActivo8Ady_TestC2Ev
FNDA:6,_ZN50calcularContornoTest_CalcularContornoCruz4Ady_TestD0Ev
FNDA:6,_ZN50calcularContornoTest_CalcularContornoCruz4Ady_TestD2Ev
FNDA:6,_ZN50calcularContornoTest_CalcularContornoCruz4Ady_Test8TestBodyEv
FNDA:6,_ZN50calcularContornoTest_CalcularContornoCruz4Ady_TestC2Ev
FNDA:6,_ZN50calcularContornoTest_CalcularContornoCruz8Ady_TestD0Ev
FNDA:6,_ZN50calcularContornoTest_CalcularContornoCruz8Ady_TestD2Ev
FNDA:6,_ZN50calcularContornoTest_CalcularContornoCruz8Ady_Test8TestBodyEv
FNDA:6,_ZN50calcularContornoTest_CalcularContornoCruz8Ady_TestC2Ev
FNDA:6,_GLOBAL__sub_I__Z13sonLosActivosRKSt6vectorIS_IiSaIiEESaIS1_EES5_
FNDA:6,_Z41__static_initialization_and_destruction_0ii
FNF:19
FNH:19
DA:5,24
DA:6,48
DA:7,144
DA:8,744
DA:9,624
DA:10,528
DA:11,264
DA:16,24
DA:17,48
DA:18,24
DA:19,48
DA:22,30
DA:28,12
DA:34,12
DA:35,6
DA:36,6
DA:38,30
DA:44,12
DA:50,12
DA:51,6
DA:52,6
DA:54,30
DA:62,12
DA:70,12
DA:71,6
DA:72,6
DA:74,30
DA:82,12
DA:90,12
DA:91,6
DA:92,24
LF:31
LH:31
end_of_record
SF:/usr/include/c++/7/bits/alloc_traits.h
FN:435,_ZNSt16allocator_traitsISaIiEE8allocateERS0_m
FN:435,_ZNSt16allocator_traitsISaISt6vectorIiSaIiEEEE8allocateERS3_m
FN:461,_ZNSt16allocator_traitsISaIiEE10deallocateERS0_Pim
FN:461,_ZNSt16allocator_traitsISaISt6vectorIiSaIiEEEE10deallocateERS3_PS2_m
FN:474,_ZNSt16allocator_traitsISaISt6vectorIiSaIiEEEE9constructIS2_JRKS2_EEEvRS3_PT_DpOT0_
FN:486,_ZNSt16allocator_traitsISaISt6vectorIiSaIiEEEE7destroyIS2_EEvRS3_PT_
FN:495,_ZNSt16allocator_traitsISaISt6vectorIiSaIiEEEE8max_sizeERKS3_
FN:504,_ZNSt16allocator_traitsISaIiEE37select_on_container_copy_constructionERKS0_
FN:504,_ZNSt16allocator_traitsISaISt6vectorIiSaIiEEEE37select_on_container_copy_constructionERKS3_
FN:535,_ZSt18__do_alloc_on_moveISaIiEEvRT_S2_St17integral_constantIbLb1EE
FN:543,_ZSt15__alloc_on_moveISaIiEEvRT_S2_
FN:558,_ZSt18__do_alloc_on_swapISaIiEEvRT_S2_St17integral_constantIbLb0EE
FN:562,_ZSt15__alloc_on_swapISaIiEEvRT_S2_
FNDA:0,_ZNSt16allocator_traitsISaISt6vectorIiSaIiEEEE8allocateERS3_m
FNDA:0,_ZNSt16allocator_traitsISaIiEE8allocateERS0_m
FNDA:0,_ZNSt16allocator_traitsISaIiEE10deallocateERS0_Pim
FNDA:0,_ZNSt16allocator_traitsISaISt6vectorIiSaIiEEEE10deallocateERS3_PS2_m
FNDA:0,_ZNSt16allocator_traitsISaISt6vectorIiSaIiEEEE9constructIS2_JRKS2_EEEvRS3_PT_DpOT0_
FNDA:0,_ZNSt16allocator_traitsISaISt6vectorIiSaIiEEEE7destroyIS2_EEvRS3_PT_
FNDA:0,_ZNSt16allocator_traitsISaISt6vectorIiSaIiEEEE8max_sizeERKS3_
FNDA:0,_ZNSt16allocator_traitsISaIiEE37select_on_container_copy_constructionERKS0_
FNDA:0,_ZNSt16allocator_traitsISaISt6vectorIiSaIiEEEE37select_on_container_copy_constructionERKS3_
FNDA:0,_ZSt18__do_alloc_on_moveISaIiEEvRT_S2_St17integral_constantIbLb1EE
FNDA:0,_ZSt15__alloc_on_moveISaIiEEvRT_S2_
FNDA:0,_ZSt18__do_alloc_on_swapISaIiEEvRT_S2_St17integral_constantIbLb0EE
FNDA:0,_ZSt15__alloc_on_swapISaIiEEvRT_S2_
FNF:13
FNH:0
DA:435,0
DA:436,0
DA:461,0
DA:462,0
DA:474,0
DA:475,0
DA:486,0
DA:487,0
DA:495,0
DA:496,0
DA:504,0
DA:505,0
DA:535,0
DA:536,0
DA:543,0
DA:547,0
DA:548,0
DA:558,0
DA:559,0
DA:562,0
DA:566,0
DA:567,0
LF:22
LH:0
end_of_record
SF:/usr/include/c++/7/bits/allocator.h
FN:131,_ZNSaIiEC2Ev
FN:131,_ZNSaISt6vectorIiSaIiEEEC2Ev
FN:133,_ZNSaIiEC2ERKS_
FN:133,_ZNSaISt6vectorIiSaIiEEEC2ERKS2_
FN:139,_ZNSaIiED2Ev
FN:139,_ZNSaISt6vectorIiSaIiEEED2Ev
FNDA:0,_ZNSaISt6vectorIiSaIiEEEC2Ev
FNDA:0,_ZNSaIiEC2Ev
FNDA:0,_ZNSaIiEC2ERKS_
FNDA:0,_ZNSaISt6vectorIiSaIiEEEC2ERKS2_
FNDA:0,_ZNSaISt6vectorIiSaIiEEED2Ev
FNDA:0,_ZNSaIiED2Ev
FNF:6
FNH:0
DA:131,0
DA:133,0
DA:134,0
DA:139,0
LF:4
LH:0
end_of_record
SF:/usr/include/c++/7/bits/cpp_type_traits.h
FN:408,_ZSt12__miter_baseIPKiET_S2_
FN:408,_ZSt12__miter_baseIN9__gnu_cxx17__normal_iteratorIPKiSt6vectorIiSaIiEEEEET_S8_
FN:408,_ZSt12__miter_baseIN9__gnu_cxx17__normal_iteratorIPSt6vectorIiSaIiEES2_IS4_SaIS4_EEEEET_S9_
FNDA:0,_ZSt12__miter_baseIN9__gnu_cxx17__normal_iteratorIPKiSt6vectorIiSaIiEEEEET_S8_
FNDA:0,_ZSt12__miter_baseIPKiET_S2_
FNDA:0,_ZSt12__miter_baseIN9__gnu_cxx17__normal_iteratorIPSt6vectorIiSaIiEES2_IS4_SaIS4_EEEEET_S9_
FNF:3
FNH:0
DA:408,0
DA:409,0
LF:2
LH:0
end_of_record
SF:/usr/include/c++/7/bits/move.h
FN:47,_ZSt11__addressofISt6vectorIiSaIiEEEPT_RS3_
FN:73,_ZSt7forwardIRKSt6vectorIiSaIiEEEOT_RNSt16remove_referenceIS5_E4typeE
FN:73,_ZSt7forwardISt6vectorIiSaIiEEEOT_RNSt16remove_referenceIS3_E4typeE
FN:98,_ZSt4moveIRSt6vectorIiSaIiEEEONSt16remove_referenceIT_E4typeEOS5_
FN:98,_ZSt4moveIRSaIiEEONSt16remove_referenceIT_E4typeEOS3_
FN:98,_ZSt4moveIRN9__gnu_cxx5__ops15_Iter_less_iterEEONSt16remove_referenceIT_E4typeEOS5_
FN:98,_ZSt4moveIRPiEONSt16remove_referenceIT_E4typeEOS3_
FN:187,_ZSt4swapIPiENSt9enable_ifIXsrSt6__and_IJSt6__not_ISt15__is_tuple_likeIT_EESt21is_move_constructibleIS5_ESt18is_move_assignableIS5_EEE5valueEvE4typeERS5_SF_
FNDA:0,_ZSt11__addressofISt6vectorIiSaIiEEEPT_RS3_
FNDA:0,_ZSt7forwardISt6vectorIiSaIiEEEOT_RNSt16remove_referenceIS3_E4typeE
FNDA:0,_ZSt7forwardIRKSt6vectorIiSaIiEEEOT_RNSt16remove_referenceIS5_E4typeE
FNDA:0,_ZSt4moveIRPiEONSt16remove_referenceIT_E4typeEOS3_
FNDA:0,_ZSt4moveIRSaIiEEONSt16remove_referenceIT_E4typeEOS3_
FNDA:0,_ZSt4moveIRN9__gnu_cxx5__ops15_Iter_less_iterEEONSt16remove_referenceIT_E4typeEOS5_
FNDA:0,_ZSt4moveIRSt6vectorIiSaIiEEEONSt16remove_referenceIT_E4typeEOS5_
FNDA:0,_ZSt4swapIPiENSt9enable_ifIXsrSt6__and_IJSt6__not_ISt15__is_tuple_likeIT_EESt21is_move_constructibleIS5_ESt18is_move_assignableIS5_EEE5valueEvE4typeERS5_SF_
FNF:8
FNH:0
DA:47,0
DA:48,0
DA:73,0
DA:74,0
DA:98,0
DA:99,0
DA:187,0
DA:198,0
DA:199,0
DA:200,0
DA:201,0
LF:11
LH:0
end_of_record
SF:/usr/include/c++/7/bits/predefined_ops.h
FN:42,_ZNK9__gnu_cxx5__ops15_Iter_less_iterclINS_17__normal_iteratorIPSt6vectorIiSaIiEES4_IS6_SaIS6_EEEESA_EEbT_T0_
FN:42,_ZNK9__gnu_cxx5__ops15_Iter_less_iterclIPKiS4_EEbT_T0_
FN:48,_ZN9__gnu_cxx5__ops16__iter_less_iterEv
FN:60,_ZN9__gnu_cxx5__ops14_Iter_less_valC2ENS0_15_Iter_less_iterE
FN:64,_ZNK9__gnu_cxx5__ops14_Iter_less_valclINS_17__normal_iteratorIPSt6vectorIiSaIiEES4_IS6_SaIS6_EEEES6_EEbT_RT0_
FN:89,_ZNK9__gnu_cxx5__ops14_Val_less_iterclISt6vectorIiSaIiEENS_17__normal_iteratorIPS5_S3_IS5_SaIS5_EEEEEEbRT_T0_
FN:98,_ZN9__gnu_cxx5__ops15__val_comp_iterENS0_15_Iter_less_iterE
FNDA:2784,_ZNK9__gnu_cxx5__ops15_Iter_less_iterclIPKiS4_EEbT_T0_
FNDA:480,_ZNK9__gnu_cxx5__ops15_Iter_less_iterclINS_17__normal_iteratorIPSt6vectorIiSaIiEES4_IS6_SaIS6_EEEESA_EEbT_T0_
FNDA:1008,_ZN9__gnu_cxx5__ops16__iter_less_iterEv
FNDA:0,_ZN9__gnu_cxx5__ops14_Iter_less_valC2ENS0_15_Iter_less_iterE
FNDA:0,_ZNK9__gnu_cxx5__ops14_Iter_less_valclINS_17__normal_iteratorIPSt6vectorIiSaIiEES4_IS6_SaIS6_EEEES6_EEbT_RT0_
FNDA:480,_ZNK9__gnu_cxx5__ops14_Val_less_iterclISt6vectorIiSaIiEENS_17__normal_iteratorIPS5_S3_IS5_SaIS5_EEEEEEbRT_T0_
FNDA:480,_ZN9__gnu_cxx5__ops15__val_comp_iterENS0_15_Iter_less_iterE
FNF:7
FNH:5
DA:42,3264
DA:43,3264
DA:48,1008
DA:49,1008
DA:60,0
DA:64,0
DA:65,0
DA:89,480
DA:90,480
DA:98,480
DA:99,480
LF:11
LH:8
end_of_record
SF:/usr/include/c++/7/bits/stl_algo.h
FN:78,_ZSt22__move_median_to_firstIN9__gnu_cxx17__normal_iteratorIPSt6vectorIiSaIiEES2_IS4_SaIS4_EEEENS0_5__ops15_Iter_less_iterEEvT_SB_SB_SB_T0_
FN:1668,_ZSt13__heap_selectIN9__gnu_cxx17__normal_iteratorIPSt6vectorIiSaIiEES2_IS4_SaIS4_EEEENS0_5__ops15_Iter_less_iterEEvT_SB_SB_T0_
FN:1821,_ZSt25__unguarded_linear_insertIN9__gnu_cxx17__normal_iteratorIPSt6vectorIiSaIiEES2_IS4_SaIS4_EEEENS0_5__ops14_Val_less_iterEEvT_T0_
FN:1840,_ZSt16__insertion_sortIN9__gnu_cxx17__normal_iteratorIPSt6vectorIiSaIiEES2_IS4_SaIS4_EEEENS0_5__ops15_Iter_less_iterEEvT_SB_T0_
FN:1863,_ZSt26__unguarded_insertion_sortIN9__gnu_cxx17__normal_iteratorIPSt6vectorIiSaIiEES2_IS4_SaIS4_EEEENS0_5__ops15_Iter_less_iterEEvT_SB_T0_
FN:1880,_ZSt22__final_insertion_sortIN9__gnu_cxx17__normal_iteratorIPSt6vectorIiSaIiEES2_IS4_SaIS4_EEEENS0_5__ops15_Iter_less_iterEEvT_SB_T0_
FN:1896,_ZSt21__unguarded_partitionIN9__gnu_cxx17__normal_iteratorIPSt6vectorIiSaIiEES2_IS4_SaIS4_EEEENS0_5__ops15_Iter_less_iterEET_SB_SB_SB_T0_
FN:1917,_ZSt27__unguarded_partition_pivotIN9__gnu_cxx17__normal_iteratorIPSt6vectorIiSaIiEES2_IS4_SaIS4_EEEENS0_5__ops15_Iter_less_iterEET_SB_SB_T0_
FN:1928,_ZSt14__partial_sortIN9__gnu_cxx17__normal_iteratorIPSt6vectorIiSaIiEES2_IS4_SaIS4_EEEENS0_5__ops15_Iter_less_iterEEvT_SB_SB_T0_
FN:1940,_ZSt16__introsort_loopIN9__gnu_cxx17__normal_iteratorIPSt6vectorIiSaIiEES2_IS4_SaIS4_EEEElNS0_5__ops15_Iter_less_iterEEvT_SB_T0_T1_
FN:1963,_ZSt6__sortIN9__gnu_cxx17__normal_iteratorIPSt6vectorIiSaIiEES2_IS4_SaIS4_EEEENS0_5__ops15_Iter_less_iterEEvT_SB_T0_
FN:4826,_ZSt4sortIN9__gnu_cxx17__normal_iteratorIPSt6vectorIiSaIiEES2_IS4_SaIS4_EEEEEvT_S9_
FNDA:0,_ZSt22__move_median_to_firstIN9__gnu_cxx17__normal_iteratorIPSt6vectorIiSaIiEES2_IS4_SaIS4_EEEENS0_5__ops15_Iter_less_iterEEvT_SB_SB_SB_T0_
FNDA:0,_ZSt13__heap_selectIN9__gnu_cxx17__normal_iteratorIPSt6vectorIiSaIiEES2_IS4_SaIS4_EEEENS0_5__ops15_Iter_less_iterEEvT_SB_SB_T0_
FNDA:480,_ZSt25__unguarded_linear_insertIN9__gnu_cxx17__normal_iteratorIPSt6vectorIiSaIiEES2_IS4_SaIS4_EEEENS0_5__ops14_Val_less_iterEEvT_T0_
FNDA:48,_ZSt16__insertion_sortIN9__gnu_cxx17__normal_iteratorIPSt6vectorIiSaIiEES2_IS4_SaIS4_EEEENS0_5__ops15_Iter_less_iterEEvT_SB_T0_
FNDA:0,_ZSt26__unguarded_insertion_sortIN9__gnu_cxx17__normal_iteratorIPSt6vectorIiSaIiEES2_IS4_SaIS4_EEEENS0_5__ops15_Iter_less_iterEEvT_SB_T0_
FNDA:48,_ZSt22__final_insertion_sortIN9__gnu_cxx17__normal_iteratorIPSt6vectorIiSaIiEES2_IS4_SaIS4_EEEENS0_5__ops15_Iter_less_iterEEvT_SB_T0_
FNDA:0,_ZSt21__unguarded_partitionIN9__gnu_cxx17__normal_iteratorIPSt6vectorIiSaIiEES2_IS4_SaIS4_EEEENS0_5__ops15_Iter_less_iterEET_SB_SB_SB_T0_
FNDA:0,_ZSt27__unguarded_partition_pivotIN9__gnu_cxx17__normal_iteratorIPSt6vectorIiSaIiEES2_IS4_SaIS4_EEEENS0_5__ops15_Iter_less_iterEET_SB_SB_T0_
FNDA:0,_ZSt14__partial_sortIN9__gnu_cxx17__normal_iteratorIPSt6vectorIiSaIiEES2_IS4_SaIS4_EEEENS0_5__ops15_Iter_less_iterEEvT_SB_SB_T0_
FNDA:48,_ZSt16__introsort_loopIN9__gnu_cxx17__normal_iteratorIPSt6vectorIiSaIiEES2_IS4_SaIS4_EEEElNS0_5__ops15_Iter_less_iterEEvT_SB_T0_T1_
FNDA:48,_ZSt6__sortIN9__gnu_cxx17__normal_iteratorIPSt6vectorIiSaIiEES2_IS4_SaIS4_EEEENS0_5__ops15_Iter_less_iterEEvT_SB_T0_
FNDA:48,_ZSt4sortIN9__gnu_cxx17__normal_iteratorIPSt6vectorIiSaIiEES2_IS4_SaIS4_EEEEEvT_S9_
FNF:12
FNH:6
DA:78,0
DA:81,0
DA:83,0
DA:84,0
DA:85,0
DA:86,0
DA:88,0
DA:90,0
DA:91,0
DA:92,0
DA:93,0
DA:95,0
DA:96,0
DA:1668,0
DA:1672,0
DA:1673,0
DA:1674,0
DA:1675,0
DA:1676,0
DA:1821,480
DA:1825,960
DA:1826,480
DA:1827,480
DA:1828,480
DA:1830,0
DA:1831,0
DA:1832,0
DA:1834,480
DA:1835,480
DA:1840,48
DA:1843,48
DA:1845,528
DA:1847,480
DA:1850,0
DA:1851,0
DA:1852,0
DA:1855,480
DA:1856,960
DA:1863,0
DA:1866,0
DA:1867,0
DA:1868,0
DA:1869,0
DA:1880,48
DA:1883,48
DA:1885,0
DA:1886,0
DA:1890,48
DA:1891,48
DA:1896,0
DA:1900,0
DA:1902,0
DA:1903,0
DA:1904,0
DA:1905,0
DA:1906,0
DA:1907,0
DA:1908,0
DA:1909,0
DA:1910,0
DA:1917,0
DA:1920,0
DA:1921,0
DA:1923,0
DA:1928,0
DA:1933,0
DA:1934,0
DA:1935,0
DA:1940,48
DA:1944,48
DA:1946,0
DA:1948,0
DA:1949,0
DA:1951,0
DA:1952,0
DA:1954,0
DA:1955,0
DA:1963,48
DA:1966,48
DA:1968,48
DA:1969,48
DA:1971,48
DA:1973,48
DA:4826,48
DA:4836,48
DA:4837,48
LF:86
LH:28
end_of_record
SF:/usr/include/c++/7/bits/stl_algobase.h
FN:120,_ZSt9iter_swapIN9__gnu_cxx17__normal_iteratorIPSt6vectorIiSaIiEES2_IS4_SaIS4_EEEES8_EvT_T0_
FN:219,_ZSt3maxImERKT_S2_S2_
FN:277,_ZSt12__niter_baseIPKiET_S2_
FN:277,_ZSt12__niter_baseIPiET_S1_
FN:357,_ZNSt11__copy_moveILb0ELb1ESt26random_access_iterator_tagE8__copy_mIiEEPT_PKS3_S6_S4_
FN:375,_ZSt13__copy_move_aILb0EPKiPiET1_T0_S4_S3_
FN:420,_ZSt14__copy_move_a2ILb0EPKiPiET1_T0_S4_S3_
FN:420,_ZSt14__copy_move_a2ILb0EN9__gnu_cxx17__normal_iteratorIPKiSt6vectorIiSaIiEEEEPiET1_T0_SA_S9_
FN:446,_ZSt4copyIN9__gnu_cxx17__normal_iteratorIPKiSt6vectorIiSaIiEEEEPiET0_T_SA_S9_
FN:446,_ZSt4copyIPKiPiET0_T_S4_S3_
FN:544,_ZNSt20__copy_move_backwardILb1ELb0ESt26random_access_iterator_tagE13__copy_move_bIPSt6vectorIiSaIiEES6_EET0_T_S8_S7_
FN:577,_ZSt22__copy_move_backward_aILb1EPSt6vectorIiSaIiEES3_ET1_T0_S5_S4_
FN:595,_ZSt23__copy_move_backward_a2ILb1EN9__gnu_cxx17__normal_iteratorIPSt6vectorIiSaIiEES2_IS4_SaIS4_EEEES8_ET1_T0_SA_S9_
FN:658,_ZSt13move_backwardIN9__gnu_cxx17__normal_iteratorIPSt6vectorIiSaIiEES2_IS4_SaIS4_EEEES8_ET0_T_SA_S9_
FN:797,_ZNSt7__equalILb0EE5equalIPKSt6vectorIiSaIiEES6_EEbT_S7_T0_
FN:811,_ZNSt7__equalILb1EE5equalIiEEbPKT_S4_S4_
FN:821,_ZSt11__equal_auxIPKSt6vectorIiSaIiEES4_EbT_S5_T0_
FN:821,_ZSt11__equal_auxIPKiS1_EbT_S2_T0_
FN:853,_ZNSt8__lc_raiISt26random_access_iterator_tagS0_E10__newlast1IPKiS4_EET_S5_S5_T0_S6_
FN:865,_ZNSt8__lc_raiISt26random_access_iterator_tagS0_E6__cnd2IPKiEEbT_S5_
FN:871,_ZSt30__lexicographical_compare_implIPKiS1_N9__gnu_cxx5__ops15_Iter_less_iterEEbT_S5_T0_S6_T1_
FN:901,_ZNSt25__lexicographical_compareILb0EE4__lcIPKiS3_EEbT_S4_T0_S5_
FN:928,_ZSt29__lexicographical_compare_auxIPKiS1_EbT_S2_T0_S3_
FN:1008,_ZSt4__lgl
FN:1041,_ZSt5equalIN9__gnu_cxx17__normal_iteratorIPKSt6vectorIiSaIiEES2_IS4_SaIS4_EEEES9_EbT_SA_T0_
FN:1041,_ZSt5equalIN9__gnu_cxx17__normal_iteratorIPKiSt6vectorIiSaIiEEEES7_EbT_S8_T0_
FN:1203,_ZSt23lexicographical_compareIN9__gnu_cxx17__normal_iteratorIPKiSt6vectorIiSaIiEEEES7_EbT_S8_T0_S9_
FNDA:0,_ZSt9iter_swapIN9__gnu_cxx17__normal_iteratorIPSt6vectorIiSaIiEES2_IS4_SaIS4_EEEES8_EvT_T0_
FNDA:0,_ZSt3maxImERKT_S2_S2_
FNDA:0,_ZSt12__niter_baseIPiET_S1_
FNDA:0,_ZSt12__niter_baseIPKiET_S2_
FNDA:0,_ZNSt11__copy_moveILb0ELb1ESt26random_access_iterator_tagE8__copy_mIiEEPT_PKS3_S6_S4_
FNDA:0,_ZSt13__copy_move_aILb0EPKiPiET1_T0_S4_S3_
FNDA:0,_ZSt14__copy_move_a2ILb0EN9__gnu_cxx17__normal_iteratorIPKiSt6vectorIiSaIiEEEEPiET1_T0_SA_S9_
FNDA:0,_ZSt14__copy_move_a2ILb0EPKiPiET1_T0_S4_S3_
FNDA:0,_ZSt4copyIN9__gnu_cxx17__normal_iteratorIPKiSt6vectorIiSaIiEEEEPiET0_T_SA_S9_
FNDA:0,_ZSt4copyIPKiPiET0_T_S4_S3_
FNDA:0,_ZNSt20__copy_move_backwardILb1ELb0ESt26random_access_iterator_tagE13__copy_move_bIPSt6vectorIiSaIiEES6_EET0_T_S8_S7_
FNDA:0,_ZSt22__copy_move_backward_aILb1EPSt6vectorIiSaIiEES3_ET1_T0_S5_S4_
FNDA:0,_ZSt23__copy_move_backward_a2ILb1EN9__gnu_cxx17__normal_iteratorIPSt6vectorIiSaIiEES2_IS4_SaIS4_EEEES8_ET1_T0_SA_S9_
FNDA:0,_ZSt13move_backwardIN9__gnu_cxx17__normal_iteratorIPSt6vectorIiSaIiEES2_IS4_SaIS4_EEEES8_ET0_T_SA_S9_
FNDA:48,_ZNSt7__equalILb0EE5equalIPKSt6vectorIiSaIiEES6_EEbT_S7_T0_
FNDA:0,_ZNSt7__equalILb1EE5equalIiEEbPKT_S4_S4_
FNDA:0,_ZSt11__equal_auxIPKiS1_EbT_S2_T0_
FNDA:48,_ZSt11__equal_auxIPKSt6vectorIiSaIiEES4_EbT_S5_T0_
FNDA:960,_ZNSt8__lc_raiISt26random_access_iterator_tagS0_E10__newlast1IPKiS4_EET_S5_S5_T0_S6_
FNDA:1392,_ZNSt8__lc_raiISt26random_access_iterator_tagS0_E6__cnd2IPKiEEbT_S5_
FNDA:960,_ZSt30__lexicographical_compare_implIPKiS1_N9__gnu_cxx5__ops15_Iter_less_iterEEbT_S5_T0_S6_T1_
FNDA:960,_ZNSt25__lexicographical_compareILb0EE4__lcIPKiS3_EEbT_S4_T0_S5_
FNDA:960,_ZSt29__lexicographical_compare_auxIPKiS1_EbT_S2_T0_S3_
FNDA:48,_ZSt4__lgl
FNDA:0,_ZSt5equalIN9__gnu_cxx17__normal_iteratorIPKiSt6vectorIiSaIiEEEES7_EbT_S8_T0_
FNDA:48,_ZSt5equalIN9__gnu_cxx17__normal_iteratorIPKSt6vectorIiSaIiEES2_IS4_SaIS4_EEEES9_EbT_SA_T0_
FNDA:960,_ZSt23lexicographical_compareIN9__gnu_cxx17__normal_iteratorIPKiSt6vectorIiSaIiEEEES7_EbT_S8_T0_S9_
FNF:27
FNH:10
DA:120,0
DA:148,0
DA:150,0
DA:219,0
DA:224,0
DA:225,0
DA:226,0
DA:277,0
DA:278,0
DA:357,0
DA:366,0
DA:367,0
DA:368,0
DA:369,0
DA:375,0
DA:380,0
DA:386,0
DA:420,0
DA:422,0
DA:424,0
DA:446,0
DA:455,0
DA:456,0
DA:544,0
DA:547,0
DA:548,0
DA:549,0
DA:577,0
DA:582,0
DA:590,0
DA:595,0
DA:598,0
DA:599,0
DA:658,0
DA:668,0
DA:670,0
DA:797,498
DA:799,948
DA:800,450
DA:801,0
DA:802,48
DA:811,0
DA:813,0
DA:814,0
DA:815,0
DA:821,48
DA:825,48
DA:831,48
DA:853,960
DA:857,960
DA:859,960
DA:860,960
DA:865,1392
DA:866,1392
DA:871,960
DA:879,960
DA:880,1824
DA:883,1392
DA:884,0
DA:885,1392
DA:886,960
DA:888,0
DA:901,960
DA:906,960
DA:928,960
DA:933,960
DA:941,960
DA:1008,48
DA:1009,48
DA:1041,48
DA:1051,48
DA:1053,48
DA:1203,960
DA:1218,960
DA:1221,960
LF:75
LH:32
end_of_record
SF:/usr/include/c++/7/bits/stl_construct.h
FN:74,_ZSt10_ConstructISt6vectorIiSaIiEEJRKS2_EEvPT_DpOT0_
FN:74,_ZSt10_ConstructISt6vectorIiSaIiEEJS2_EEvPT_DpOT0_
FN:97,_ZSt8_DestroyISt6vectorIiSaIiEEEvPT_
FN:105,_ZNSt12_Destroy_auxILb0EE9__destroyIPSt6vectorIiSaIiEEEEvT_S6_
FN:117,_ZNSt12_Destroy_auxILb1EE9__destroyIPiEEvT_S3_
FN:127,_ZSt8_DestroyIPiEvT_S1_
FN:127,_ZSt8_DestroyIPSt6vectorIiSaIiEEEvT_S4_
FN:203,_ZSt8_DestroyIPiiEvT_S1_RSaIT0_E
FN:203,_ZSt8_DestroyIPSt6vectorIiSaIiEES2_EvT_S4_RSaIT0_E
FNDA:0,_ZSt10_ConstructISt6vectorIiSaIiEEJS2_EEvPT_DpOT0_
FNDA:0,_ZSt10_ConstructISt6vectorIiSaIiEEJRKS2_EEvPT_DpOT0_
FNDA:0,_ZSt8_DestroyISt6vectorIiSaIiEEEvPT_
FNDA:0,_ZNSt12_Destroy_auxILb0EE9__destroyIPSt6vectorIiSaIiEEEEvT_S6_
FNDA:0,_ZNSt12_Destroy_auxILb1EE9__destroyIPiEEvT_S3_
FNDA:0,_ZSt8_DestroyIPiEvT_S1_
FNDA:0,_ZSt8_DestroyIPSt6vectorIiSaIiEEEvT_S4_
FNDA:0,_ZSt8_DestroyIPiiEvT_S1_RSaIT0_E
FNDA:0,_ZSt8_DestroyIPSt6vectorIiSaIiEES2_EvT_S4_RSaIT0_E
FNF:9
FNH:0
DA:74,0
DA:75,0
DA:97,0
DA:98,0
DA:105,0
DA:107,0
DA:108,0
DA:109,0
DA:117,0
DA:127,0
DA:137,0
DA:138,0
DA:203,0
DA:206,0
DA:207,0
LF:15
LH:0
end_of_record
SF:/usr/include/c++/7/bits/stl_heap.h
FN:128,_ZSt11__push_heapIN9__gnu_cxx17__normal_iteratorIPSt6vectorIiSaIiEES2_IS4_SaIS4_EEEElS4_NS0_5__ops14_Iter_less_valEEvT_T0_SC_T1_RT2_
FN:214,_ZSt13__adjust_heapIN9__gnu_cxx17__normal_iteratorIPSt6vectorIiSaIiEES2_IS4_SaIS4_EEEElS4_NS0_5__ops15_Iter_less_iterEEvT_T0_SC_T1_T2_
FN:243,_ZSt10__pop_heapIN9__gnu_cxx17__normal_iteratorIPSt6vectorIiSaIiEES2_IS4_SaIS4_EEEENS0_5__ops15_Iter_less_iterEEvT_SB_SB_RT0_
FN:326,_ZSt11__make_heapIN9__gnu_cxx17__normal_iteratorIPSt6vectorIiSaIiEES2_IS4_SaIS4_EEEENS0_5__ops15_Iter_less_iterEEvT_SB_RT0_
FN:402,_ZSt11__sort_heapIN9__gnu_cxx17__normal_iteratorIPSt6vectorIiSaIiEES2_IS4_SaIS4_EEEENS0_5__ops15_Iter_less_iterEEvT_SB_RT0_
FNDA:0,_ZSt11__push_heapIN9__gnu_cxx17__normal_iteratorIPSt6vectorIiSaIiEES2_IS4_SaIS4_EEEElS4_NS0_5__ops14_Iter_less_valEEvT_T0_SC_T1_RT2_
FNDA:0,_ZSt13__adjust_heapIN9__gnu_cxx17__normal_iteratorIPSt6vectorIiSaIiEES2_IS4_SaIS4_EEEElS4_NS0_5__ops15_Iter_less_iterEEvT_T0_SC_T1_T2_
FNDA:0,_ZSt10__pop_heapIN9__gnu_cxx17__normal_iteratorIPSt6vectorIiSaIiEES2_IS4_SaIS4_EEEENS0_5__ops15_Iter_less_iterEEvT_SB_SB_RT0_
FNDA:0,_ZSt11__make_heapIN9__gnu_cxx17__normal_iteratorIPSt6vectorIiSaIiEES2_IS4_SaIS4_EEEENS0_5__ops15_Iter_less_iterEEvT_SB_RT0_
FNDA:0,_ZSt11__sort_heapIN9__gnu_cxx17__normal_iteratorIPSt6vectorIiSaIiEES2_IS4_SaIS4_EEEENS0_5__ops15_Iter_less_iterEEvT_SB_RT0_
FNF:5
FNH:0
DA:128,0
DA:132,0
DA:133,0
DA:135,0
DA:136,0
DA:137,0
DA:139,0
DA:140,0
DA:214,0
DA:217,0
DA:218,0
DA:219,0
DA:221,0
DA:222,0
DA:224,0
DA:225,0
DA:226,0
DA:228,0
DA:230,0
DA:231,0
DA:233,0
DA:236,0
DA:237,0
DA:238,0
DA:239,0
DA:243,0
DA:251,0
DA:252,0
DA:253,0
DA:254,0
DA:255,0
DA:256,0
DA:326,0
DA:334,0
DA:335,0
DA:337,0
DA:338,0
DA:339,0
DA:341,0
DA:342,0
DA:344,0
DA:345,0
DA:346,0
DA:402,0
DA:405,0
DA:407,0
DA:408,0
DA:410,0
LF:48
LH:0
end_of_record
SF:/usr/include/c++/7/bits/stl_iterator.h
FN:782,_ZN9__gnu_cxx17__normal_iteratorIPSt6vectorIiSaIiEES1_IS3_SaIS3_EEEC2ERKS4_
FN:782,_ZN9__gnu_cxx17__normal_iteratorIPKSt6vectorIiSaIiEES1_IS3_SaIS3_EEEC2ERKS5_
FN:782,_ZN9__gnu_cxx17__normal_iteratorIPKiSt6vectorIiSaIiEEEC2ERKS2_
FN:795,_ZNK9__gnu_cxx17__normal_iteratorIPKSt6vectorIiSaIiEES1_IS3_SaIS3_EEEdeEv
FN:795,_ZNK9__gnu_cxx17__normal_iteratorIPSt6vectorIiSaIiEES1_IS3_SaIS3_EEEdeEv
FN:803,_ZN9__gnu_cxx17__normal_iteratorIPSt6vectorIiSaIiEES1_IS3_SaIS3_EEEppEv
FN:803,_ZN9__gnu_cxx17__normal_iteratorIPKSt6vectorIiSaIiEES1_IS3_SaIS3_EEEppEv
FN:815,_ZN9__gnu_cxx17__normal_iteratorIPSt6vectorIiSaIiEES1_IS3_SaIS3_EEEmmEv
FN:835,_ZNK9__gnu_cxx17__normal_iteratorIPSt6vectorIiSaIiEES1_IS3_SaIS3_EEEplEl
FN:843,_ZNK9__gnu_cxx17__normal_iteratorIPSt6vectorIiSaIiEES1_IS3_SaIS3_EEEmiEl
FN:847,_ZNK9__gnu_cxx17__normal_iteratorIPKSt6vectorIiSaIiEES1_IS3_SaIS3_EEE4baseEv
FN:847,_ZNK9__gnu_cxx17__normal_iteratorIPSt6vectorIiSaIiEES1_IS3_SaIS3_EEE4baseEv
FN:847,_ZNK9__gnu_cxx17__normal_iteratorIPKiSt6vectorIiSaIiEEE4baseEv
FN:869,_ZN9__gnu_cxxeqIPSt6vectorIiSaIiEES1_IS3_SaIS3_EEEEbRKNS_17__normal_iteratorIT_T0_EESC_
FN:883,_ZN9__gnu_cxxneIPSt6vectorIiSaIiEES1_IS3_SaIS3_EEEEbRKNS_17__normal_iteratorIT_T0_EESC_
FN:883,_ZN9__gnu_cxxneIPKSt6vectorIiSaIiEES1_IS3_SaIS3_EEEEbRKNS_17__normal_iteratorIT_T0_EESD_
FN:898,_ZN9__gnu_cxxltIPSt6vectorIiSaIiEES1_IS3_SaIS3_EEEEbRKNS_17__normal_iteratorIT_T0_EESC_
FN:965,_ZN9__gnu_cxxmiIPSt6vectorIiSaIiEES1_IS3_SaIS3_EEEENS_17__normal_iteratorIT_T0_E15difference_typeERKSA_SD_
FN:986,_ZSt12__niter_baseIPKiSt6vectorIiSaIiEEET_N9__gnu_cxx17__normal_iteratorIS5_T0_EE
FN:986,_ZSt12__niter_baseIPSt6vectorIiSaIiEES0_IS2_SaIS2_EEET_N9__gnu_cxx17__normal_iteratorIS6_T0_EE
FN:986,_ZSt12__niter_baseIPKSt6vectorIiSaIiEES0_IS2_SaIS2_EEET_N9__gnu_cxx17__normal_iteratorIS7_T0_EE
FN:1039,_ZNSt13move_iteratorIPSt6vectorIiSaIiEEEC2ES3_
FN:1048,_ZNKSt13move_iteratorIPSt6vectorIiSaIiEEE4baseEv
FN:1052,_ZNKSt13move_iteratorIPSt6vectorIiSaIiEEEdeEv
FN:1060,_ZNSt13move_iteratorIPSt6vectorIiSaIiEEEppEv
FN:1127,_ZSteqIPSt6vectorIiSaIiEEEbRKSt13move_iteratorIT_ES8_
FN:1139,_ZStneIPSt6vectorIiSaIiEEEbRKSt13move_iteratorIT_ES8_
FN:1224,_ZSt32__make_move_if_noexcept_iteratorISt6vectorIiSaIiEESt13move_iteratorIPS2_EET0_PT_
FNDA:0,_ZN9__gnu_cxx17__normal_iteratorIPKiSt6vectorIiSaIiEEEC2ERKS2_
FNDA:0,_ZN9__gnu_cxx17__normal_iteratorIPKSt6vectorIiSaIiEES1_IS3_SaIS3_EEEC2ERKS5_
FNDA:0,_ZN9__gnu_cxx17__normal_iteratorIPSt6vectorIiSaIiEES1_IS3_SaIS3_EEEC2ERKS4_
FNDA:0,_ZNK9__gnu_cxx17__normal_iteratorIPKSt6vectorIiSaIiEES1_IS3_SaIS3_EEEdeEv
FNDA:0,_ZNK9__gnu_cxx17__normal_iteratorIPSt6vectorIiSaIiEES1_IS3_SaIS3_EEEdeEv
FNDA:0,_ZN9__gnu_cxx17__normal_iteratorIPKSt6vectorIiSaIiEES1_IS3_SaIS3_EEEppEv
FNDA:0,_ZN9__gnu_cxx17__normal_iteratorIPSt6vectorIiSaIiEES1_IS3_SaIS3_EEEppEv
FNDA:480,_ZN9__gnu_cxx17__normal_iteratorIPSt6vectorIiSaIiEES1_IS3_SaIS3_EEEmmEv
FNDA:0,_ZNK9__gnu_cxx17__normal_iteratorIPSt6vectorIiSaIiEES1_IS3_SaIS3_EEEplEl
FNDA:0,_ZNK9__gnu_cxx17__normal_iteratorIPSt6vectorIiSaIiEES1_IS3_SaIS3_EEEmiEl
FNDA:0,_ZNK9__gnu_cxx17__normal_iteratorIPKiSt6vectorIiSaIiEEE4baseEv
FNDA:0,_ZNK9__gnu_cxx17__normal_iteratorIPKSt6vectorIiSaIiEES1_IS3_SaIS3_EEE4baseEv
FNDA:0,_ZNK9__gnu_cxx17__normal_iteratorIPSt6vectorIiSaIiEES1_IS3_SaIS3_EEE4baseEv
FNDA:48,_ZN9__gnu_cxxeqIPSt6vectorIiSaIiEES1_IS3_SaIS3_EEEEbRKNS_17__normal_iteratorIT_T0_EESC_
FNDA:0,_ZN9__gnu_cxxneIPKSt6vectorIiSaIiEES1_IS3_SaIS3_EEEEbRKNS_17__normal_iteratorIT_T0_EESD_
FNDA:0,_ZN9__gnu_cxxneIPSt6vectorIiSaIiEES1_IS3_SaIS3_EEEEbRKNS_17__normal_iteratorIT_T0_EESC_
FNDA:0,_ZN9__gnu_cxxltIPSt6vectorIiSaIiEES1_IS3_SaIS3_EEEEbRKNS_17__normal_iteratorIT_T0_EESC_
FNDA:0,_ZN9__gnu_cxxmiIPSt6vectorIiSaIiEES1_IS3_SaIS3_EEEENS_17__normal_iteratorIT_T0_E15difference_typeERKSA_SD_
FNDA:0,_ZSt12__niter_baseIPKiSt6vectorIiSaIiEEET_N9__gnu_cxx17__normal_iteratorIS5_T0_EE
FNDA:0,_ZSt12__niter_baseIPSt6vectorIiSaIiEES0_IS2_SaIS2_EEET_N9__gnu_cxx17__normal_iteratorIS6_T0_EE
FNDA:0,_ZSt12__niter_baseIPKSt6vectorIiSaIiEES0_IS2_SaIS2_EEET_N9__gnu_cxx17__normal_iteratorIS7_T0_EE
FNDA:0,_ZNSt13move_iteratorIPSt6vectorIiSaIiEEEC2ES3_
FNDA:0,_ZNKSt13move_iteratorIPSt6vectorIiSaIiEEE4baseEv
FNDA:0,_ZNKSt13move_iteratorIPSt6vectorIiSaIiEEEdeEv
FNDA:0,_ZNSt13move_iteratorIPSt6vectorIiSaIiEEEppEv
FNDA:0,_ZSteqIPSt6vectorIiSaIiEEEbRKSt13move_iteratorIT_ES8_
FNDA:0,_ZStneIPSt6vectorIiSaIiEEEbRKSt13move_iteratorIT_ES8_
FNDA:0,_ZSt32__make_move_if_noexcept_iteratorISt6vectorIiSaIiEESt13move_iteratorIPS2_EET0_PT_
FNF:28
FNH:2
DA:782,0
DA:783,0
DA:795,0
DA:796,0
DA:803,0
DA:805,0
DA:806,0
DA:815,480
DA:817,480
DA:818,480
DA:835,0
DA:836,0
DA:843,0
DA:844,0
DA:847,0
DA:848,0
DA:869,48
DA:872,48
DA:883,0
DA:886,0
DA:898,0
DA:901,0
DA:965,0
DA:968,0
DA:986,0
DA:987,0
DA:1039,0
DA:1040,0
DA:1048,0
DA:1049,0
DA:1052,0
DA:1053,0
DA:1060,0
DA:1062,0
DA:1063,0
DA:1127,0
DA:1129,0
DA:1139,0
DA:1141,0
DA:1224,0
DA:1225,0
LF:41
LH:5
end_of_record
SF:/usr/include/c++/7/bits/stl_iterator_base_funcs.h
FN:98,_ZSt10__distanceIPKiENSt15iterator_traitsIT_E15difference_typeES3_S3_St26random_access_iterator_tag
FN:98,_ZSt10__distanceIPKSt6vectorIiSaIiEEENSt15iterator_traitsIT_E15difference_typeES6_S6_St26random_access_iterator_tag
FN:138,_ZSt8distanceIPKiENSt15iterator_traitsIT_E15difference_typeES3_S3_
FN:138,_ZSt8distanceIPKSt6vectorIiSaIiEEENSt15iterator_traitsIT_E15difference_typeES6_S6_
FNDA:0,_ZSt10__distanceIPKSt6vectorIiSaIiEEENSt15iterator_traitsIT_E15difference_typeES6_S6_St26random_access_iterator_tag
FNDA:0,_ZSt10__distanceIPKiENSt15iterator_traitsIT_E15difference_typeES3_S3_St26random_access_iterator_tag
FNDA:0,_ZSt8distanceIPKSt6vectorIiSaIiEEENSt15iterator_traitsIT_E15difference_typeES6_S6_
FNDA:0,_ZSt8distanceIPKiENSt15iterator_traitsIT_E15difference_typeES3_S3_
FNF:4
FNH:0
DA:98,0
DA:104,0
DA:138,0
DA:141,0
DA:142,0
LF:5
LH:0
end_of_record
SF:/usr/include/c++/7/bits/stl_iterator_base_types.h
FN:205,_ZSt19__iterator_categoryIPKiENSt15iterator_traitsIT_E17iterator_categoryERKS3_
FN:205,_ZSt19__iterator_categoryIPKSt6vectorIiSaIiEEENSt15iterator_traitsIT_E17iterator_categoryERKS6_
FNDA:0,_ZSt19__iterator_categoryIPKSt6vectorIiSaIiEEENSt15iterator_traitsIT_E17iterator_categoryERKS6_
FNDA:0,_ZSt19__iterator_categoryIPKiENSt15iterator_traitsIT_E17iterator_categoryERKS3_
FNF:2
FNH:0
DA:205,0
DA:206,0
LF:2
LH:0
end_of_record
SF:/usr/include/c++/7/bits/stl_uninitialized.h
FN:76,_ZNSt20__uninitialized_copyILb0EE13__uninit_copyIN9__gnu_cxx17__normal_iteratorIPKSt6vectorIiSaIiEES4_IS6_SaIS6_EEEEPS6_EET0_T_SE_SD_
FN:76,_ZNSt20__uninitialized_copyILb0EE13__uninit_copyIPKSt6vectorIiSaIiEEPS4_EET0_T_S9_S8_
FN:76,_ZNSt20__uninitialized_copyILb0EE13__uninit_copyISt13move_iteratorIPSt6vectorIiSaIiEEES6_EET0_T_S9_S8_
FN:99,_ZNSt20__uninitialized_copyILb1EE13__uninit_copyIN9__gnu_cxx17__normal_iteratorIPKiSt6vectorIiSaIiEEEEPiEET0_T_SC_SB_
FN:99,_ZNSt20__uninitialized_copyILb1EE13__uninit_copyIPKiPiEET0_T_S6_S5_
FN:115,_ZSt18uninitialized_copyISt13move_iteratorIPSt6vectorIiSaIiEEES4_ET0_T_S7_S6_
FN:115,_ZSt18uninitialized_copyIPKSt6vectorIiSaIiEEPS2_ET0_T_S7_S6_
FN:115,_ZSt18uninitialized_copyIN9__gnu_cxx17__normal_iteratorIPKSt6vectorIiSaIiEES2_IS4_SaIS4_EEEEPS4_ET0_T_SC_SB_
FN:115,_ZSt18uninitialized_copyIPKiPiET0_T_S4_S3_
FN:115,_ZSt18uninitialized_copyIN9__gnu_cxx17__normal_iteratorIPKiSt6vectorIiSaIiEEEEPiET0_T_SA_S9_
FN:287,_ZSt22__uninitialized_copy_aISt13move_iteratorIPSt6vectorIiSaIiEEES4_S3_ET0_T_S7_S6_RSaIT1_E
FN:287,_ZSt22__uninitialized_copy_aIPKSt6vectorIiSaIiEEPS2_S2_ET0_T_S7_S6_RSaIT1_E
FN:287,_ZSt22__uninitialized_copy_aIN9__gnu_cxx17__normal_iteratorIPKiSt6vectorIiSaIiEEEEPiiET0_T_SA_S9_RSaIT1_E
FN:287,_ZSt22__uninitialized_copy_aIPKiPiiET0_T_S4_S3_RSaIT1_E
FN:287,_ZSt22__uninitialized_copy_aIN9__gnu_cxx17__normal_iteratorIPKSt6vectorIiSaIiEES2_IS4_SaIS4_EEEEPS4_S4_ET0_T_SC_SB_RSaIT1_E
FN:305,_ZSt34__uninitialized_move_if_noexcept_aIPSt6vectorIiSaIiEES3_SaIS2_EET0_T_S6_S5_RT1_
FNDA:0,_ZNSt20__uninitialized_copyILb0EE13__uninit_copyISt13move_iteratorIPSt6vectorIiSaIiEEES6_EET0_T_S9_S8_
FNDA:0,_ZNSt20__uninitialized_copyILb0EE13__uninit_copyIPKSt6vectorIiSaIiEEPS4_EET0_T_S9_S8_
FNDA:0,_ZNSt20__uninitialized_copyILb0EE13__uninit_copyIN9__gnu_cxx17__normal_iteratorIPKSt6vectorIiSaIiEES4_IS6_SaIS6_EEEEPS6_EET0_T_SE_SD_
FNDA:0,_ZNSt20__uninitialized_copyILb1EE13__uninit_copyIN9__gnu_cxx17__normal_iteratorIPKiSt6vectorIiSaIiEEEEPiEET0_T_SC_SB_
FNDA:0,_ZNSt20__uninitialized_copyILb1EE13__uninit_copyIPKiPiEET0_T_S6_S5_
FNDA:0,_ZSt18uninitialized_copyIN9__gnu_cxx17__normal_iteratorIPKiSt6vectorIiSaIiEEEEPiET0_T_SA_S9_
FNDA:0,_ZSt18uninitialized_copyISt13move_iteratorIPSt6vectorIiSaIiEEES4_ET0_T_S7_S6_
FNDA:0,_ZSt18uninitialized_copyIPKSt6vectorIiSaIiEEPS2_ET0_T_S7_S6_
FNDA:0,_ZSt18uninitialized_copyIPKiPiET0_T_S4_S3_
FNDA:0,_ZSt18uninitialized_copyIN9__gnu_cxx17__normal_iteratorIPKSt6vectorIiSaIiEES2_IS4_SaIS4_EEEEPS4_ET0_T_SC_SB_
FNDA:0,_ZSt22__uninitialized_copy_aIN9__gnu_cxx17__normal_iteratorIPKiSt6vectorIiSaIiEEEEPiiET0_T_SA_S9_RSaIT1_E
FNDA:0,_ZSt22__uninitialized_copy_aISt13move_iteratorIPSt6vectorIiSaIiEEES4_S3_ET0_T_S7_S6_RSaIT1_E
FNDA:0,_ZSt22__uninitialized_copy_aIPKSt6vectorIiSaIiEEPS2_S2_ET0_T_S7_S6_RSaIT1_E
FNDA:0,_ZSt22__uninitialized_copy_aIPKiPiiET0_T_S4_S3_RSaIT1_E
FNDA:0,_ZSt22__uninitialized_copy_aIN9__gnu_cxx17__normal_iteratorIPKSt6vectorIiSaIiEES2_IS4_SaIS4_EEEEPS4_S4_ET0_T_SC_SB_RSaIT1_E
FNDA:0,_ZSt34__uninitialized_move_if_noexcept_aIPSt6vectorIiSaIiEES3_SaIS2_EET0_T_S6_S5_RT1_
FNF:16
FNH:0
DA:76,0
DA:79,0
DA:82,0
DA:83,0
DA:84,0
DA:86,0
DA:88,0
DA:89,0
DA:99,0
DA:101,0
DA:115,0
DA:128,0
DA:134,0
DA:287,0
DA:289,0
DA:305,0
DA:311,0
DA:312,0
LF:18
LH:0
end_of_record
SF:/usr/include/c++/7/bits/stl_vector.h
FN:81,_ZNSt12_Vector_baseISt6vectorIiSaIiEESaIS2_EE12_Vector_implD2Ev
FN:81,_ZNSt12_Vector_baseIiSaIiEE12_Vector_implD2Ev
FN:88,_ZNSt12_Vector_baseISt6vectorIiSaIiEESaIS2_EE12_Vector_implC2Ev
FN:92,_ZNSt12_Vector_baseISt6vectorIiSaIiEESaIS2_EE12_Vector_implC2ERKS3_
FN:92,_ZNSt12_Vector_baseIiSaIiEE12_Vector_implC2ERKS0_
FN:97,_ZNSt12_Vector_baseIiSaIiEE12_Vector_implC2EOS0_
FN:103,_ZNSt12_Vector_baseIiSaIiEE12_Vector_impl12_M_swap_dataERS2_
FN:115,_ZNSt12_Vector_baseIiSaIiEE19_M_get_Tp_allocatorEv
FN:115,_ZNSt12_Vector_baseISt6vectorIiSaIiEESaIS2_EE19_M_get_Tp_allocatorEv
FN:119,_ZNKSt12_Vector_baseISt6vectorIiSaIiEESaIS2_EE19_M_get_Tp_allocatorEv
FN:119,_ZNKSt12_Vector_baseIiSaIiEE19_M_get_Tp_allocatorEv
FN:123,_ZNKSt12_Vector_baseIiSaIiEE13get_allocatorEv
FN:126,_ZNSt12_Vector_baseISt6vectorIiSaIiEESaIS2_EEC2Ev
FN:129,_ZNSt12_Vector_baseISt6vectorIiSaIiEESaIS2_EEC2ERKS3_
FN:129,_ZNSt12_Vector_baseIiSaIiEEC2ERKS0_
FN:136,_ZNSt12_Vector_baseIiSaIiEEC2EmRKS0_
FN:136,_ZNSt12_Vector_baseISt6vectorIiSaIiEESaIS2_EEC2EmRKS3_
FN:144,_ZNSt12_Vector_baseIiSaIiEEC2EOS1_
FN:161,_ZNSt12_Vector_baseIiSaIiEED2Ev
FN:161,_ZNSt12_Vector_baseISt6vectorIiSaIiEESaIS2_EED2Ev
FN:169,_ZNSt12_Vector_baseIiSaIiEE11_M_allocateEm
FN:169,_ZNSt12_Vector_baseISt6vectorIiSaIiEESaIS2_EE11_M_allocateEm
FN:176,_ZNSt12_Vector_baseIiSaIiEE13_M_deallocateEPim
FN:176,_ZNSt12_Vector_baseISt6vectorIiSaIiEESaIS2_EE13_M_deallocateEPS2_m
FN:185,_ZNSt12_Vector_baseISt6vectorIiSaIiEESaIS2_EE17_M_create_storageEm
FN:185,_ZNSt12_Vector_baseIiSaIiEE17_M_create_storageEm
FN:259,_ZNSt6vectorIS_IiSaIiEESaIS1_EEC2Ev
FN:270,_ZNSt6vectorIiSaIiEEC2ERKS0_
FN:326,_ZNSt6vectorIS_IiSaIiEESaIS1_EEC2ERKS3_
FN:326,_ZNSt6vectorIiSaIiEEC2ERKS1_
FN:344,_ZNSt6vectorIiSaIiEEC2EOS1_
FN:383,_ZNSt6vectorIiSaIiEEC2ESt16initializer_listIiERKS0_
FN:383,_ZNSt6vectorIS_IiSaIiEESaIS1_EEC2ESt16initializer_listIS1_ERKS2_
FN:433,_ZNSt6vectorIiSaIiEED2Ev
FN:433,_ZNSt6vectorIS_IiSaIiEESaIS1_EED2Ev
FN:461,_ZNSt6vectorIiSaIiEEaSEOS1_
FN:563,_ZNSt6vectorIS_IiSaIiEESaIS1_EE5beginEv
FN:572,_ZNKSt6vectorIS_IiSaIiEESaIS1_EE5beginEv
FN:572,_ZNKSt6vectorIiSaIiEE5beginEv
FN:581,_ZNSt6vectorIS_IiSaIiEESaIS1_EE3endEv
FN:590,_ZNKSt6vectorIS_IiSaIiEESaIS1_EE3endEv
FN:590,_ZNKSt6vectorIiSaIiEE3endEv
FN:670,_ZNKSt6vectorIiSaIiEE4sizeEv
FN:670,_ZNKSt6vectorIS_IiSaIiEESaIS1_EE4sizeEv
FN:675,_ZNKSt6vectorIS_IiSaIiEESaIS1_EE8max_sizeEv
FN:813,_ZNKSt6vectorIiSaIiEEixEm
FN:813,_ZNKSt6vectorIS_IiSaIiEESaIS1_EEixEm
FN:939,_ZNSt6vectorIS_IiSaIiEESaIS1_EE9push_backERKS1_
FN:1229,_ZNSt6vectorIiSaIiEE4swapERS1_
FN:1324,_ZNSt6vectorIiSaIiEE19_M_range_initializeIPKiEEvT_S5_St20forward_iterator_tag
FN:1324,_ZNSt6vectorIS_IiSaIiEESaIS1_EE19_M_range_initializeIPKS1_EEvT_S7_St20forward_iterator_tag
FN:1502,_ZNKSt6vectorIS_IiSaIiEESaIS1_EE12_M_check_lenEmPKc
FN:1534,_ZNSt6vectorIiSaIiEE14_M_move_assignEOS1_St17integral_constantIbLb1EE
FN:1601,_ZSteqISt6vectorIiSaIiEESaIS2_EEbRKS0_IT_T0_ES8_
FN:1601,_ZSteqIiSaIiEEbRKSt6vectorIT_T0_ES6_
FN:1618,_ZStltIiSaIiEEbRKSt6vectorIT_T0_ES6_
FN:1649,_ZSt4swapIiSaIiEEvRSt6vectorIT_T0_ES5_
FNDA:0,_ZNSt12_Vector_baseIiSaIiEE12_Vector_implD2Ev
FNDA:0,_ZNSt12_Vector_baseISt6vectorIiSaIiEESaIS2_EE12_Vector_implD2Ev
FNDA:0,_ZNSt12_Vector_baseISt6vectorIiSaIiEESaIS2_EE12_Vector_implC2Ev
FNDA:0,_ZNSt12_Vector_baseISt6vectorIiSaIiEESaIS2_EE12_Vector_implC2ERKS3_
FNDA:0,_ZNSt12_Vector_baseIiSaIiEE12_Vector_implC2ERKS0_
FNDA:0,_ZNSt12_Vector_baseIiSaIiEE12_Vector_implC2EOS0_
FNDA:0,_ZNSt12_Vector_baseIiSaIiEE12_Vector_impl12_M_swap_dataERS2_
FNDA:0,_ZNSt12_Vector_baseIiSaIiEE19_M_get_Tp_allocatorEv
FNDA:0,_ZNSt12_Vector_baseISt6vectorIiSaIiEESaIS2_EE19_M_get_Tp_allocatorEv
FNDA:0,_ZNKSt12_Vector_baseIiSaIiEE19_M_get_Tp_allocatorEv
FNDA:0,_ZNKSt12_Vector_baseISt6vectorIiSaIiEESaIS2_EE19_M_get_Tp_allocatorEv
FNDA:0,_ZNKSt12_Vector_baseIiSaIiEE13get_allocatorEv
FNDA:0,_ZNSt12_Vector_baseISt6vectorIiSaIiEESaIS2_EEC2Ev
FNDA:0,_ZNSt12_Vector_baseISt6vectorIiSaIiEESaIS2_EEC2ERKS3_
FNDA:0,_ZNSt12_Vector_baseIiSaIiEEC2ERKS0_
FNDA:0,_ZNSt12_Vector_baseIiSaIiEEC2EmRKS0_
FNDA:0,_ZNSt12_Vector_baseISt6vectorIiSaIiEESaIS2_EEC2EmRKS3_
FNDA:0,_ZNSt12_Vector_baseIiSaIiEEC2EOS1_
FNDA:0,_ZNSt12_Vector_baseIiSaIiEED2Ev
FNDA:0,_ZNSt12_Vector_baseISt6vectorIiSaIiEESaIS2_EED2Ev
FNDA:0,_ZNSt12_Vector_baseISt6vectorIiSaIiEESaIS2_EE11_M_allocateEm
FNDA:0,_ZNSt12_Vector_baseIiSaIiEE11_M_allocateEm
FNDA:0,_ZNSt12_Vector_baseIiSaIiEE13_M_deallocateEPim
FNDA:0,_ZNSt12_Vector_baseISt6vectorIiSaIiEESaIS2_EE13_M_deallocateEPS2_m
FNDA:0,_ZNSt12_Vector_baseIiSaIiEE17_M_create_storageEm
FNDA:0,_ZNSt12_Vector_baseISt6vectorIiSaIiEESaIS2_EE17_M_create_storageEm
FNDA:0,_ZNSt6vectorIS_IiSaIiEESaIS1_EEC2Ev
FNDA:0,_ZNSt6vectorIiSaIiEEC2ERKS0_
FNDA:0,_ZNSt6vectorIiSaIiEEC2ERKS1_
FNDA:0,_ZNSt6vectorIS_IiSaIiEESaIS1_EEC2ERKS3_
FNDA:0,_ZNSt6vectorIiSaIiEEC2EOS1_
FNDA:0,_ZNSt6vectorIS_IiSaIiEESaIS1_EEC2ESt16initializer_listIS1_ERKS2_
FNDA:0,_ZNSt6vectorIiSaIiEEC2ESt16initializer_listIiERKS0_
FNDA:0,_ZNSt6vectorIiSaIiEED2Ev
FNDA:0,_ZNSt6vectorIS_IiSaIiEESaIS1_EED2Ev
FNDA:0,_ZNSt6vectorIiSaIiEEaSEOS1_
FNDA:0,_ZNSt6vectorIS_IiSaIiEESaIS1_EE5beginEv
FNDA:0,_ZNKSt6vectorIiSaIiEE5beginEv
FNDA:0,_ZNKSt6vectorIS_IiSaIiEESaIS1_EE5beginEv
FNDA:0,_ZNSt6vectorIS_IiSaIiEESaIS1_EE3endEv
FNDA:0,_ZNKSt6vectorIiSaIiEE3endEv
FNDA:0,_ZNKSt6vectorIS_IiSaIiEESaIS1_EE3endEv
FNDA:0,_ZNKSt6vectorIiSaIiEE4sizeEv
FNDA:0,_ZNKSt6vectorIS_IiSaIiEESaIS1_EE4sizeEv
FNDA:0,_ZNKSt6vectorIS_IiSaIiEESaIS1_EE8max_sizeEv
FNDA:0,_ZNKSt6vectorIiSaIiEEixEm
FNDA:0,_ZNKSt6vectorIS_IiSaIiEESaIS1_EEixEm
FNDA:0,_ZNSt6vectorIS_IiSaIiEESaIS1_EE9push_backERKS1_
FNDA:0,_ZNSt6vectorIiSaIiEE4swapERS1_
FNDA:0,_ZNSt6vectorIS_IiSaIiEESaIS1_EE19_M_range_initializeIPKS1_EEvT_S7_St20forward_iterator_tag
FNDA:0,_ZNSt6vectorIiSaIiEE19_M_range_initializeIPKiEEvT_S5_St20forward_iterator_tag
FNDA:0,_ZNKSt6vectorIS_IiSaIiEESaIS1_EE12_M_check_lenEmPKc
FNDA:0,_ZNSt6vectorIiSaIiEE14_M_move_assignEOS1_St17integral_constantIbLb1EE
FNDA:0,_ZSteqIiSaIiEEbRKSt6vectorIT_T0_ES6_
FNDA:48,_ZSteqISt6vectorIiSaIiEESaIS2_EEbRKS0_IT_T0_ES8_
FNDA:960,_ZStltIiSaIiEEbRKSt6vectorIT_T0_ES6_
FNDA:0,_ZSt4swapIiSaIiEEvRSt6vectorIT_T0_ES5_
FNF:57
FNH:2
DA:81,0
DA:88,0
DA:89,0
DA:90,0
DA:92,0
DA:93,0
DA:94,0
DA:97,0
DA:98,0
DA:99,0
DA:100,0
DA:103,0
DA:105,0
DA:106,0
DA:107,0
DA:108,0
DA:115,0
DA:116,0
DA:119,0
DA:120,0
DA:123,0
DA:124,0
DA:126,0
DA:127,0
DA:129,0
DA:130,0
DA:136,0
DA:137,0
DA:138,0
DA:144,0
DA:145,0
DA:146,0
DA:161,0
DA:162,0
DA:163,0
DA:169,0
DA:172,0
DA:176,0
DA:179,0
DA:180,0
DA:181,0
DA:185,0
DA:187,0
DA:188,0
DA:189,0
DA:190,0
DA:259,0
DA:263,0
DA:270,0
DA:271,0
DA:326,0
DA:328,0
DA:330,0
DA:331,0
DA:333,0
DA:334,0
DA:344,0
DA:345,0
DA:383,0
DA:385,0
DA:387,0
DA:389,0
DA:433,0
DA:434,0
DA:435,0
DA:461,0
DA:463,0
DA:466,0
DA:467,0
DA:563,0
DA:564,0
DA:572,0
DA:573,0
DA:581,0
DA:582,0
DA:590,0
DA:591,0
DA:670,0
DA:671,0
DA:675,0
DA:676,0
DA:813,0
DA:816,0
DA:939,0
DA:941,0
DA:943,0
DA:945,0
DA:948,0
DA:949,0
DA:1229,0
DA:1235,0
DA:1236,0
DA:1238,0
DA:1324,0
DA:1327,0
DA:1328,0
DA:1329,0
DA:1330,0
DA:1331,0
DA:1333,0
DA:1334,0
DA:1502,0
DA:1504,0
DA:1505,0
DA:1507,0
DA:1508,0
DA:1534,0
DA:1536,0
DA:1537,0
DA:1538,0
DA:1539,0
DA:1540,0
DA:1601,48
DA:1602,48
DA:1603,48
DA:1618,960
DA:1619,960
DA:1620,960
DA:1649,0
DA:1651,0
LF:120
LH:6
end_of_record
SF:/usr/include/c++/7/bits/vector.tcc
FN:394,_ZNSt6vectorIS_IiSaIiEESaIS1_EE17_M_realloc_insertIJRKS1_EEEvN9__gnu_cxx17__normal_iteratorIPS1_S3_EEDpOT_
FNDA:0,_ZNSt6vectorIS_IiSaIiEESaIS1_EE17_M_realloc_insertIJRKS1_EEEvN9__gnu_cxx17__normal_iteratorIPS1_S3_EEDpOT_
FNF:1
FNH:0
DA:394,0
DA:403,0
DA:405,0
DA:406,0
DA:407,0
DA:415,0
DA:416,0
DA:422,0
DA:424,0
DA:426,0
DA:427,0
DA:429,0
DA:431,0
DA:433,0
DA:434,0
DA:436,0
DA:438,0
DA:439,0
DA:440,0
DA:442,0
DA:443,0
DA:444,0
DA:446,0
DA:447,0
DA:448,0
DA:449,0
DA:450,0
DA:451,0
DA:452,0
DA:453,0
DA:454,0
LF:31
LH:0
end_of_record
SF:/usr/include/c++/7/ext/alloc_traits.h
FN:94,_ZN9__gnu_cxx14__alloc_traitsISaISt6vectorIiSaIiEEEE17_S_select_on_copyERKS4_
FN:94,_ZN9__gnu_cxx14__alloc_traitsISaIiEE17_S_select_on_copyERKS1_
FN:97,_ZN9__gnu_cxx14__alloc_traitsISaIiEE10_S_on_swapERS1_S3_
FNDA:0,_ZN9__gnu_cxx14__alloc_traitsISaIiEE17_S_select_on_copyERKS1_
FNDA:0,_ZN9__gnu_cxx14__alloc_traitsISaISt6vectorIiSaIiEEEE17_S_select_on_copyERKS4_
FNDA:0,_ZN9__gnu_cxx14__alloc_traitsISaIiEE10_S_on_swapERS1_S3_
FNF:3
FNH:0
DA:94,0
DA:95,0
DA:97,0
DA:98,0
LF:4
LH:0
end_of_record
SF:/usr/include/c++/7/ext/new_allocator.h
FN:79,_ZN9__gnu_cxx13new_allocatorIiEC2Ev
FN:79,_ZN9__gnu_cxx13new_allocatorISt6vectorIiSaIiEEEC2Ev
FN:81,_ZN9__gnu_cxx13new_allocatorISt6vectorIiSaIiEEEC2ERKS4_
FN:81,_ZN9__gnu_cxx13new_allocatorIiEC2ERKS1_
FN:86,_ZN9__gnu_cxx13new_allocatorISt6vectorIiSaIiEEED2Ev
FN:86,_ZN9__gnu_cxx13new_allocatorIiED2Ev
FN:99,_ZN9__gnu_cxx13new_allocatorIiE8allocateEmPKv
FN:99,_ZN9__gnu_cxx13new_allocatorISt6vectorIiSaIiEEE8allocateEmPKv
FN:116,_ZN9__gnu_cxx13new_allocatorIiE10deallocateEPim
FN:116,_ZN9__gnu_cxx13new_allocatorISt6vectorIiSaIiEEE10deallocateEPS3_m
FN:129,_ZNK9__gnu_cxx13new_allocatorIiE8max_sizeEv
FN:129,_ZNK9__gnu_cxx13new_allocatorISt6vectorIiSaIiEEE8max_sizeEv
FN:135,_ZN9__gnu_cxx13new_allocatorISt6vectorIiSaIiEEE9constructIS3_JRKS3_EEEvPT_DpOT0_
FN:140,_ZN9__gnu_cxx13new_allocatorISt6vectorIiSaIiEEE7destroyIS3_EEvPT_
FNDA:0,_ZN9__gnu_cxx13new_allocatorISt6vectorIiSaIiEEEC2Ev
FNDA:0,_ZN9__gnu_cxx13new_allocatorIiEC2Ev
FNDA:0,_ZN9__gnu_cxx13new_allocatorIiEC2ERKS1_
FNDA:0,_ZN9__gnu_cxx13new_allocatorISt6vectorIiSaIiEEEC2ERKS4_
FNDA:0,_ZN9__gnu_cxx13new_allocatorISt6vectorIiSaIiEEED2Ev
FNDA:0,_ZN9__gnu_cxx13new_allocatorIiED2Ev
FNDA:0,_ZN9__gnu_cxx13new_allocatorISt6vectorIiSaIiEEE8allocateEmPKv
FNDA:0,_ZN9__gnu_cxx13new_allocatorIiE8allocateEmPKv
FNDA:0,_ZN9__gnu_cxx13new_allocatorIiE10deallocateEPim
FNDA:0,_ZN9__gnu_cxx13new_allocatorISt6vectorIiSaIiEEE10deallocateEPS3_m
FNDA:0,_ZNK9__gnu_cxx13new_allocatorISt6vectorIiSaIiEEE8max_sizeEv
FNDA:0,_ZNK9__gnu_cxx13new_allocatorIiE8max_sizeEv
FNDA:0,_ZN9__gnu_cxx13new_allocatorISt6vectorIiSaIiEEE9constructIS3_JRKS3_EEEvPT_DpOT0_
FNDA:0,_ZN9__gnu_cxx13new_allocatorISt6vectorIiSaIiEEE7destroyIS3_EEvPT_
FNF:14
FNH:0
DA:79,0
DA:81,0
DA:86,0
DA:99,0
DA:101,0
DA:102,0
DA:111,0
DA:116,0
DA:125,0
DA:126,0
DA:129,0
DA:130,0
DA:135,0
DA:136,0
DA:140,0
LF:15
LH:0
end_of_record
SF:/usr/include/c++/7/initializer_list
FN:71,_ZNKSt16initializer_listISt6vectorIiSaIiEEE4sizeEv
FN:71,_ZNKSt16initializer_listIiE4sizeEv
FN:75,_ZNKSt16initializer_listISt6vectorIiSaIiEEE5beginEv
FN:75,_ZNKSt16initializer_listIiE5beginEv
FN:79,_ZNKSt16initializer_listISt6vectorIiSaIiEEE3endEv
FN:79,_ZNKSt16initializer_listIiE3endEv
FNDA:0,_ZNKSt16initializer_listISt6vectorIiSaIiEEE4sizeEv
FNDA:0,_ZNKSt16initializer_listIiE4sizeEv
FNDA:0,_ZNKSt16initializer_listISt6vectorIiSaIiEEE5beginEv
FNDA:0,_ZNKSt16initializer_listIiE5beginEv
FNDA:0,_ZNKSt16initializer_listISt6vectorIiSaIiEEE3endEv
FNDA:0,_ZNKSt16initializer_listIiE3endEv
FNF:6
FNH:0
DA:71,0
DA:75,0
DA:79,0
LF:3
LH:0
end_of_record
SF:/usr/include/c++/7/iostream
DA:74,6
LF:1
LH:1
end_of_record
SF:/usr/include/c++/7/new
FN:168,_ZnwmPv
FN:174,_ZdlPvS_
FNDA:0,_ZnwmPv
FNDA:0,_ZdlPvS_
FNF:2
FNH:0
DA:168,0
DA:169,0
DA:174,0
LF:3
LH:0
end_of_record
TN:
SF:/home/msaied/Documents/TPI-morfologia-matematica/auxiliares.cpp
FN:9,_Z8esMatrizRKSt6vectorIS_IiSaIiEESaIS1_EE
FN:20,_Z9esBinariaRKSt6vectorIS_IiSaIiEESaIS1_EE
FN:35,_Z21obtenerRegionDelPixelRKSt6vectorIS_IiSaIiEESaIS1_EERKS1_RKi
FN:54,_Z17obtenerPixelesAdyRKSt6vectorIS_IiSaIiEESaIS1_EERKS1_RKi
FN:65,_Z18obtenerPixelesAdy4RKSt6vectorIS_IiSaIiEESaIS1_EERKS1_
FN:84,_Z18obtenerPixelesAdy8RKSt6vectorIS_IiSaIiEESaIS1_EERKS1_
FN:98,_Z7enRangoRKSt6vectorIiSaIiEERKS_IS1_SaIS1_EEii
FN:104,_Z16deleteDuplicatesRKSt6vectorIS_IiSaIiEESaIS1_EE
FN:124,_Z7erosionRKSt6vectorIS_IiSaIiEESaIS1_EES5_
FN:141,_Z10dilatacionRKSt6vectorIS_IiSaIiEESaIS1_EES5_
FN:158,_Z33elementoEstructuranteEstaEnRegioniSt6vectorIS_IiSaIiEESaIS1_EES1_S3_
FN:171,_Z31elementoEstructuranteTocaRegioniSt6vectorIS_IiSaIiEESaIS1_EES1_S3_
FN:186,_Z23deleteDuplicatesRegionsRKSt6vectorIS_IS_IiSaIiEESaIS1_EESaIS3_EE
FN:203,_Z16igualdadRegionesRKSt6vectorIS_IiSaIiEESaIS1_EES5_
FN:220,_Z16igualdadImagenesRKSt6vectorIS_IiSaIiEESaIS1_EES5_
FN:233,_Z9areaTotalRKSt6vectorIS_IiSaIiEESaIS1_EE
FN:246,_Z12interseccionSt6vectorIS_IiSaIiEESaIS1_EES3_
FN:261,_Z13generarImagenSt6vectorIiSaIiEES_IS1_SaIS1_EE
FN:273,_Z15proximaIteIgualSt6vectorIS_IiSaIiEESaIS1_EES3_
FNDA:12,_Z8esMatrizRKSt6vectorIS_IiSaIiEESaIS1_EE
FNDA:9,_Z9esBinariaRKSt6vectorIS_IiSaIiEESaIS1_EE
FNDA:234,_Z21obtenerRegionDelPixelRKSt6vectorIS_IiSaIiEESaIS1_EERKS1_RKi
FNDA:2361,_Z17obtenerPixelesAdyRKSt6vectorIS_IiSaIiEESaIS1_EERKS1_RKi
FNDA:1857,_Z18obtenerPixelesAdy4RKSt6vectorIS_IiSaIiEESaIS1_EERKS1_
FNDA:504,_Z18obtenerPixelesAdy8RKSt6vectorIS_IiSaIiEESaIS1_EERKS1_
FNDA:135384,_Z7enRangoRKSt6vectorIiSaIiEERKS_IS1_SaIS1_EEii
FNDA:588,_Z16deleteDuplicatesRKSt6vectorIS_IiSaIiEESaIS1_EE
FNDA:6,_Z7erosionRKSt6vectorIS_IiSaIiEESaIS1_EES5_
FNDA:78,_Z10dilatacionRKSt6vectorIS_IiSaIiEESaIS1_EES5_
FNDA:252,_Z33elementoEstructuranteEstaEnRegioniSt6vectorIS_IiSaIiEESaIS1_EES1_S3_
FNDA:7104,_Z31elementoEstructuranteTocaRegioniSt6vectorIS_IiSaIiEESaIS1_EES1_S3_
FNDA:54,_Z23deleteDuplicatesRegionsRKSt6vectorIS_IS_IiSaIiEESaIS1_EESaIS3_EE
FNDA:213,_Z16igualdadRegionesRKSt6vectorIS_IiSaIiEESaIS1_EES5_
FNDA:42,_Z16igualdadImagenesRKSt6vectorIS_IiSaIiEESaIS1_EES5_
FNDA:54,_Z9areaTotalRKSt6vectorIS_IiSaIiEESaIS1_EE
FNDA:72,_Z12interseccionSt6vectorIS_IiSaIiEESaIS1_EES3_
FNDA:12,_Z13generarImagenSt6vectorIiSaIiEES_IS1_SaIS1_EE
FNDA:42,_Z15proximaIteIgualSt6vectorIS_IiSaIiEESaIS1_EES3_
FNF:19
FNH:19
DA:9,12
DA:10,12
DA:11,48
DA:12,36
DA:13,3
DA:17,12
DA:20,9
DA:21,9
DA:22,39
DA:23,114
DA:24,84
DA:25,3
DA:30,9
DA:35,234
DA:36,234
DA:38,234
DA:39,1410
DA:40,588
DA:41,1176
DA:42,2637
DA:43,4098
DA:44,2049
DA:47,588
DA:48,588
DA:51,234
DA:54,2361
DA:55,2361
DA:56,2361
DA:57,1857
DA:58,504
DA:59,504
DA:62,2361
DA:65,1857
DA:66,1857
DA:68,1857
DA:69,1050
DA:71,1857
DA:72,1020
DA:74,1857
DA:75,876
DA:77,1857
DA:78,849
DA:81,1857
DA:84,504
DA:85,504
DA:87,2016
DA:88,6048
DA:89,4536
DA:90,1047
DA:95,504
DA:98,135384
DA:99,135384
DA:100,135384
DA:101,135384
DA:104,588
DA:105,588
DA:106,6651
DA:107,6063
DA:108,46899
DA:109,40836
DA:110,3483
DA:114,6063
DA:115,2580
DA:118,588
DA:124,6
DA:125,6
DA:126,6
DA:127,48
DA:128,294
DA:129,504
DA:130,252
DA:131,162
DA:133,90
DA:138,6
DA:141,78
DA:142,78
DA:143,78
DA:144,822
DA:145,7848
DA:146,14208
DA:147,7104
DA:148,2646
DA:150,4458
DA:155,78
DA:158,252
DA:159,252
DA:160,252
DA:161,252
DA:162,1008
DA:163,3024
DA:164,2268
DA:165,132
DA:168,252
DA:171,7104
DA:172,7104
DA:173,7104
DA:174,7104
DA:175,28416
DA:176,85248
DA:177,63936
DA:178,7353
DA:181,7104
DA:186,54
DA:187,54
DA:188,237
DA:189,183
DA:190,396
DA:191,213
DA:192,78
DA:196,183
DA:197,105
DA:200,54
DA:203,213
DA:204,213
DA:205,759
DA:206,546
DA:207,3282
DA:208,2736
DA:209,378
DA:213,546
DA:214,168
DA:217,213
DA:220,42
DA:221,42
DA:222,444
DA:223,4254
DA:224,3852
DA:225,138
DA:230,42
DA:233,54
DA:234,54
DA:235,207
DA:236,582
DA:237,429
DA:238,183
DA:243,54
DA:246,72
DA:247,72
DA:248,774
DA:249,7554
DA:250,6852
DA:251,1038
DA:253,5814
DA:258,72
DA:261,12
DA:262,12
DA:263,114
DA:264,954
DA:265,852
DA:268,12
DA:270,12
DA:273,42
DA:274,84
DA:275,84
DA:277,84
LF:155
LH:155
end_of_record
SF:/usr/include/c++/7/bits/alloc_traits.h
FN:435,_ZNSt16allocator_traitsISaIiEE8allocateERS0_m
FN:435,_ZNSt16allocator_traitsISaISt6vectorIS0_IiSaIiEESaIS2_EEEE8allocateERS5_m
FN:435,_ZNSt16allocator_traitsISaISt6vectorIiSaIiEEEE8allocateERS3_m
FN:461,_ZNSt16allocator_traitsISaIiEE10deallocateERS0_Pim
FN:461,_ZNSt16allocator_traitsISaISt6vectorIS0_IiSaIiEESaIS2_EEEE10deallocateERS5_PS4_m
FN:461,_ZNSt16allocator_traitsISaISt6vectorIiSaIiEEEE10deallocateERS3_PS2_m
FN:474,_ZNSt16allocator_traitsISaISt6vectorIiSaIiEEEE9constructIS2_JS2_EEEvRS3_PT_DpOT0_
FN:474,_ZNSt16allocator_traitsISaISt6vectorIS0_IiSaIiEESaIS2_EEEE9constructIS4_JRKS4_EEEvRS5_PT_DpOT0_
FN:474,_ZNSt16allocator_traitsISaISt6vectorIiSaIiEEEE9constructIS2_JRKS2_EEEvRS3_PT_DpOT0_
FN:486,_ZNSt16allocator_traitsISaISt6vectorIS0_IiSaIiEESaIS2_EEEE7destroyIS4_EEvRS5_PT_
FN:486,_ZNSt16allocator_traitsISaISt6vectorIiSaIiEEEE7destroyIS2_EEvRS3_PT_
FN:495,_ZNSt16allocator_traitsISaISt6vectorIS0_IiSaIiEESaIS2_EEEE8max_sizeERKS5_
FN:495,_ZNSt16allocator_traitsISaISt6vectorIiSaIiEEEE8max_sizeERKS3_
FN:504,_ZNSt16allocator_traitsISaISt6vectorIiSaIiEEEE37select_on_container_copy_constructionERKS3_
FN:504,_ZNSt16allocator_traitsISaIiEE37select_on_container_copy_constructionERKS0_
FN:516,_ZSt18__do_alloc_on_copyISaIiEEvRT_RKS1_St17integral_constantIbLb0EE
FN:520,_ZSt15__alloc_on_copyISaIiEEvRT_RKS1_
FN:535,_ZSt18__do_alloc_on_moveISaISt6vectorIiSaIiEEEEvRT_S5_St17integral_constantIbLb1EE
FN:535,_ZSt18__do_alloc_on_moveISaIiEEvRT_S2_St17integral_constantIbLb1EE
FN:543,_ZSt15__alloc_on_moveISaIiEEvRT_S2_
FN:543,_ZSt15__alloc_on_moveISaISt6vectorIiSaIiEEEEvRT_S5_
FNDA:0,_ZNSt16allocator_traitsISaISt6vectorIS0_IiSaIiEESaIS2_EEEE8allocateERS5_m
FNDA:0,_ZNSt16allocator_traitsISaIiEE8allocateERS0_m
FNDA:0,_ZNSt16allocator_traitsISaISt6vectorIiSaIiEEEE8allocateERS3_m
FNDA:0,_ZNSt16allocator_traitsISaISt6vectorIS0_IiSaIiEESaIS2_EEEE10deallocateERS5_PS4_m
FNDA:0,_ZNSt16allocator_traitsISaISt6vectorIiSaIiEEEE10deallocateERS3_PS2_m
FNDA:0,_ZNSt16allocator_traitsISaIiEE10deallocateERS0_Pim
FNDA:4842,_ZNSt16allocator_traitsISaISt6vectorIiSaIiEEEE9constructIS2_JS2_EEEvRS3_PT_DpOT0_
FNDA:0,_ZNSt16allocator_traitsISaISt6vectorIS0_IiSaIiEESaIS2_EEEE9constructIS4_JRKS4_EEEvRS5_PT_DpOT0_
FNDA:0,_ZNSt16allocator_traitsISaISt6vectorIiSaIiEEEE9constructIS2_JRKS2_EEEvRS3_PT_DpOT0_
FNDA:0,_ZNSt16allocator_traitsISaISt6vectorIS0_IiSaIiEESaIS2_EEEE7destroyIS4_EEvRS5_PT_
FNDA:0,_ZNSt16allocator_traitsISaISt6vectorIiSaIiEEEE7destroyIS2_EEvRS3_PT_
FNDA:0,_ZNSt16allocator_traitsISaISt6vectorIS0_IiSaIiEESaIS2_EEEE8max_sizeERKS5_
FNDA:0,_ZNSt16allocator_traitsISaISt6vectorIiSaIiEEEE8max_sizeERKS3_
FNDA:0,_ZNSt16allocator_traitsISaISt6vectorIiSaIiEEEE37select_on_container_copy_constructionERKS3_
FNDA:0,_ZNSt16allocator_traitsISaIiEE37select_on_container_copy_constructionERKS0_
FNDA:0,_ZSt18__do_alloc_on_copyISaIiEEvRT_RKS1_St17integral_constantIbLb0EE
FNDA:0,_ZSt15__alloc_on_copyISaIiEEvRT_RKS1_
FNDA:240,_ZSt18__do_alloc_on_moveISaIiEEvRT_S2_St17integral_constantIbLb1EE
FNDA:2949,_ZSt18__do_alloc_on_moveISaISt6vectorIiSaIiEEEEvRT_S5_St17integral_constantIbLb1EE
FNDA:240,_ZSt15__alloc_on_moveISaIiEEvRT_S2_
FNDA:2949,_ZSt15__alloc_on_moveISaISt6vectorIiSaIiEEEEvRT_S5_
FNF:21
FNH:5
DA:435,0
DA:436,0
DA:461,0
DA:462,0
DA:474,4842
DA:475,4842
DA:486,0
DA:487,0
DA:495,0
DA:496,0
DA:504,0
DA:505,0
DA:516,0
DA:517,0
DA:520,0
DA:524,0
DA:525,0
DA:535,3189
DA:536,3189
DA:543,3189
DA:547,3189
DA:548,3189
LF:22
LH:7
end_of_record
SF:/usr/include/c++/7/bits/allocator.h
FN:131,_ZNSaISt6vectorIiSaIiEEEC2Ev
FN:131,_ZNSaISt6vectorIS_IiSaIiEESaIS1_EEEC2Ev
FN:131,_ZNSaIiEC2Ev
FN:133,_ZNSaIiEC2ERKS_
FN:133,_ZNSaISt6vectorIiSaIiEEEC2ERKS2_
FN:139,_ZNSaISt6vectorIiSaIiEEED2Ev
FN:139,_ZNSaIiED2Ev
FN:139,_ZNSaISt6vectorIS_IiSaIiEESaIS1_EEED2Ev
FN:164,_ZStneIiEbRKSaIT_ES3_
FNDA:0,_ZNSaISt6vectorIS_IiSaIiEESaIS1_EEEC2Ev
FNDA:0,_ZNSaIiEC2Ev
FNDA:0,_ZNSaISt6vectorIiSaIiEEEC2Ev
FNDA:0,_ZNSaISt6vectorIiSaIiEEEC2ERKS2_
FNDA:0,_ZNSaIiEC2ERKS_
FNDA:0,_ZNSaISt6vectorIS_IiSaIiEESaIS1_EEED2Ev
FNDA:0,_ZNSaIiED2Ev
FNDA:0,_ZNSaISt6vectorIiSaIiEEED2Ev
FNDA:0,_ZStneIiEbRKSaIT_ES3_
FNF:9
FNH:0
DA:131,0
DA:133,0
DA:134,0
DA:139,0
DA:164,0
DA:166,0
LF:6
LH:0
end_of_record
SF:/usr/include/c++/7/bits/cpp_type_traits.h
FN:408,_ZSt12__miter_baseIPKiET_S2_
FN:408,_ZSt12__miter_baseIPSt6vectorIiSaIiEEET_S4_
FN:408,_ZSt12__miter_baseIPiET_S1_
FN:408,_ZSt12__miter_baseIN9__gnu_cxx17__normal_iteratorIPSt6vectorIiSaIiEES2_IS4_SaIS4_EEEEET_S9_
FN:408,_ZSt12__miter_baseIN9__gnu_cxx17__normal_iteratorIPKiSt6vectorIiSaIiEEEEET_S8_
FNDA:0,_ZSt12__miter_baseIPiET_S1_
FNDA:0,_ZSt12__miter_baseIPKiET_S2_
FNDA:0,_ZSt12__miter_baseIN9__gnu_cxx17__normal_iteratorIPKiSt6vectorIiSaIiEEEEET_S8_
FNDA:1224,_ZSt12__miter_baseIN9__gnu_cxx17__normal_iteratorIPSt6vectorIiSaIiEES2_IS4_SaIS4_EEEEET_S9_
FNDA:0,_ZSt12__miter_baseIPSt6vectorIiSaIiEEET_S4_
FNF:5
FNH:1
DA:408,1224
DA:409,1224
LF:2
LH:2
end_of_record
SF:/usr/include/c++/7/bits/move.h
FN:47,_ZSt11__addressofISt6vectorIS0_IiSaIiEESaIS2_EEEPT_RS5_
FN:47,_ZSt11__addressofISt6vectorIiSaIiEEEPT_RS3_
FN:73,_ZSt7forwardISt6vectorIS0_IiSaIiEESaIS2_EEEOT_RNSt16remove_referenceIS5_E4typeE
FN:73,_ZSt7forwardISt6vectorIiSaIiEEEOT_RNSt16remove_referenceIS3_E4typeE
FN:73,_ZSt7forwardIRKSt6vectorIS0_IiSaIiEESaIS2_EEEOT_RNSt16remove_referenceIS7_E4typeE
FN:73,_ZSt7forwardIRSt6vectorIiSaIiEEEOT_RNSt16remove_referenceIS4_E4typeE
FN:73,_ZSt7forwardIRKSt6vectorIiSaIiEEEOT_RNSt16remove_referenceIS5_E4typeE
FN:98,_ZSt4moveIRPiEONSt16remove_referenceIT_E4typeEOS3_
FN:98,_ZSt4moveIRPSt6vectorIiSaIiEEEONSt16remove_referenceIT_E4typeEOS6_
FN:98,_ZSt4moveIRSaISt6vectorIiSaIiEEEEONSt16remove_referenceIT_E4typeEOS6_
FN:98,_ZSt4moveIRSaIiEEONSt16remove_referenceIT_E4typeEOS3_
FN:98,_ZSt4moveIRSt6vectorIS0_IiSaIiEESaIS2_EEEONSt16remove_referenceIT_E4typeEOS7_
FN:98,_ZSt4moveIRSt6vectorIiSaIiEEEONSt16remove_referenceIT_E4typeEOS5_
FN:187,_ZSt4swapIPSt6vectorIiSaIiEEENSt9enable_ifIXsrSt6__and_IJSt6__not_ISt15__is_tuple_likeIT_EESt21is_move_constructibleIS8_ESt18is_move_assignableIS8_EEE5valueEvE4typeERS8_SI_
FN:187,_ZSt4swapIPiENSt9enable_ifIXsrSt6__and_IJSt6__not_ISt15__is_tuple_likeIT_EESt21is_move_constructibleIS5_ESt18is_move_assignableIS5_EEE5valueEvE4typeERS5_SF_
FNDA:0,_ZSt11__addressofISt6vectorIS0_IiSaIiEESaIS2_EEEPT_RS5_
FNDA:0,_ZSt11__addressofISt6vectorIiSaIiEEEPT_RS3_
FNDA:0,_ZSt7forwardISt6vectorIS0_IiSaIiEESaIS2_EEEOT_RNSt16remove_referenceIS5_E4typeE
FNDA:0,_ZSt7forwardIRSt6vectorIiSaIiEEEOT_RNSt16remove_referenceIS4_E4typeE
FNDA:0,_ZSt7forwardIRKSt6vectorIS0_IiSaIiEESaIS2_EEEOT_RNSt16remove_referenceIS7_E4typeE
FNDA:0,_ZSt7forwardIRKSt6vectorIiSaIiEEEOT_RNSt16remove_referenceIS5_E4typeE
FNDA:0,_ZSt7forwardISt6vectorIiSaIiEEEOT_RNSt16remove_referenceIS3_E4typeE
FNDA:0,_ZSt4moveIRPSt6vectorIiSaIiEEEONSt16remove_referenceIT_E4typeEOS6_
FNDA:0,_ZSt4moveIRPiEONSt16remove_referenceIT_E4typeEOS3_
FNDA:0,_ZSt4moveIRSaISt6vectorIiSaIiEEEEONSt16remove_referenceIT_E4typeEOS6_
FNDA:0,_ZSt4moveIRSaIiEEONSt16remove_referenceIT_E4typeEOS3_
FNDA:0,_ZSt4moveIRSt6vectorIS0_IiSaIiEESaIS2_EEEONSt16remove_referenceIT_E4typeEOS7_
FNDA:0,_ZSt4moveIRSt6vectorIiSaIiEEEONSt16remove_referenceIT_E4typeEOS5_
FNDA:0,_ZSt4swapIPSt6vectorIiSaIiEEENSt9enable_ifIXsrSt6__and_IJSt6__not_ISt15__is_tuple_likeIT_EESt21is_move_constructibleIS8_ESt18is_move_assignableIS8_EEE5valueEvE4typeERS8_SI_
FNDA:0,_ZSt4swapIPiENSt9enable_ifIXsrSt6__and_IJSt6__not_ISt15__is_tuple_likeIT_EESt21is_move_constructibleIS5_ESt18is_move_assignableIS5_EEE5valueEvE4typeERS5_SF_
FNF:15
FNH:0
DA:47,0
DA:48,0
DA:73,0
DA:74,0
DA:98,0
DA:99,0
DA:187,0
DA:198,0
DA:199,0
DA:200,0
DA:201,0
LF:11
LH:0
end_of_record
SF:/usr/include/c++/7/bits/stl_algobase.h
FN:219,_ZSt3maxImERKT_S2_S2_
FN:277,_ZSt12__niter_baseIPKiET_S2_
FN:277,_ZSt12__niter_baseIPSt6vectorIiSaIiEEET_S4_
FN:277,_ZSt12__niter_baseIPiET_S1_
FN:319,_ZNSt11__copy_moveILb0ELb0ESt26random_access_iterator_tagE8__copy_mIPSt6vectorIiSaIiEES6_EET0_T_S8_S7_
FN:357,_ZNSt11__copy_moveILb0ELb1ESt26random_access_iterator_tagE8__copy_mIiEEPT_PKS3_S6_S4_
FN:375,_ZSt13__copy_move_aILb0EPKiPiET1_T0_S4_S3_
FN:375,_ZSt13__copy_move_aILb0EPSt6vectorIiSaIiEES3_ET1_T0_S5_S4_
FN:375,_ZSt13__copy_move_aILb0EPiS0_ET1_T0_S2_S1_
FN:420,_ZSt14__copy_move_a2ILb0EN9__gnu_cxx17__normal_iteratorIPKiSt6vectorIiSaIiEEEEPiET1_T0_SA_S9_
FN:420,_ZSt14__copy_move_a2ILb0EPiS0_ET1_T0_S2_S1_
FN:420,_ZSt14__copy_move_a2ILb0EN9__gnu_cxx17__normal_iteratorIPSt6vectorIiSaIiEES2_IS4_SaIS4_EEEES8_ET1_T0_SA_S9_
FN:420,_ZSt14__copy_move_a2ILb0EN9__gnu_cxx17__normal_iteratorIPKiSt6vectorIiSaIiEEEENS1_IPiS6_EEET1_T0_SB_SA_
FN:420,_ZSt14__copy_move_a2ILb0EPKiPiET1_T0_S4_S3_
FN:446,_ZSt4copyIPKiPiET0_T_S4_S3_
FN:446,_ZSt4copyIPiS0_ET0_T_S2_S1_
FN:446,_ZSt4copyIN9__gnu_cxx17__normal_iteratorIPSt6vectorIiSaIiEES2_IS4_SaIS4_EEEES8_ET0_T_SA_S9_
FN:446,_ZSt4copyIN9__gnu_cxx17__normal_iteratorIPKiSt6vectorIiSaIiEEEENS1_IPiS6_EEET0_T_SB_SA_
FN:446,_ZSt4copyIN9__gnu_cxx17__normal_iteratorIPKiSt6vectorIiSaIiEEEEPiET0_T_SA_S9_
FN:544,_ZNSt20__copy_move_backwardILb1ELb0ESt26random_access_iterator_tagE13__copy_move_bIPSt6vectorIiSaIiEES6_EET0_T_S8_S7_
FN:577,_ZSt22__copy_move_backward_aILb1EPSt6vectorIiSaIiEES3_ET1_T0_S5_S4_
FN:595,_ZSt23__copy_move_backward_a2ILb1EPSt6vectorIiSaIiEES3_ET1_T0_S5_S4_
FN:658,_ZSt13move_backwardIPSt6vectorIiSaIiEES3_ET0_T_S5_S4_
FN:811,_ZNSt7__equalILb1EE5equalIiEEbPKT_S4_S4_
FN:821,_ZSt11__equal_auxIPKiS1_EbT_S2_T0_
FN:1041,_ZSt5equalIN9__gnu_cxx17__normal_iteratorIPKiSt6vectorIiSaIiEEEES7_EbT_S8_T0_
FNDA:0,_ZSt3maxImERKT_S2_S2_
FNDA:0,_ZSt12__niter_baseIPKiET_S2_
FNDA:0,_ZSt12__niter_baseIPiET_S1_
FNDA:0,_ZSt12__niter_baseIPSt6vectorIiSaIiEEET_S4_
FNDA:0,_ZNSt11__copy_moveILb0ELb0ESt26random_access_iterator_tagE8__copy_mIPSt6vectorIiSaIiEES6_EET0_T_S8_S7_
FNDA:0,_ZNSt11__copy_moveILb0ELb1ESt26random_access_iterator_tagE8__copy_mIiEEPT_PKS3_S6_S4_
FNDA:0,_ZSt13__copy_move_aILb0EPiS0_ET1_T0_S2_S1_
FNDA:0,_ZSt13__copy_move_aILb0EPKiPiET1_T0_S4_S3_
FNDA:0,_ZSt13__copy_move_aILb0EPSt6vectorIiSaIiEES3_ET1_T0_S5_S4_
FNDA:0,_ZSt14__copy_move_a2ILb0EPiS0_ET1_T0_S2_S1_
FNDA:0,_ZSt14__copy_move_a2ILb0EN9__gnu_cxx17__normal_iteratorIPKiSt6vectorIiSaIiEEEENS1_IPiS6_EEET1_T0_SB_SA_
FNDA:0,_ZSt14__copy_move_a2ILb0EPKiPiET1_T0_S4_S3_
FNDA:0,_ZSt14__copy_move_a2ILb0EN9__gnu_cxx17__normal_iteratorIPKiSt6vectorIiSaIiEEEEPiET1_T0_SA_S9_
FNDA:612,_ZSt14__copy_move_a2ILb0EN9__gnu_cxx17__normal_iteratorIPSt6vectorIiSaIiEES2_IS4_SaIS4_EEEES8_ET1_T0_SA_S9_
FNDA:0,_ZSt4copyIPiS0_ET0_T_S2_S1_
FNDA:0,_ZSt4copyIN9__gnu_cxx17__normal_iteratorIPKiSt6vectorIiSaIiEEEENS1_IPiS6_EEET0_T_SB_SA_
FNDA:0,_ZSt4copyIPKiPiET0_T_S4_S3_
FNDA:0,_ZSt4copyIN9__gnu_cxx17__normal_iteratorIPKiSt6vectorIiSaIiEEEEPiET0_T_SA_S9_
FNDA:612,_ZSt4copyIN9__gnu_cxx17__normal_iteratorIPSt6vectorIiSaIiEES2_IS4_SaIS4_EEEES8_ET0_T_SA_S9_
FNDA:0,_ZNSt20__copy_move_backwardILb1ELb0ESt26random_access_iterator_tagE13__copy_move_bIPSt6vectorIiSaIiEES6_EET0_T_S8_S7_
FNDA:0,_ZSt22__copy_move_backward_aILb1EPSt6vectorIiSaIiEES3_ET1_T0_S5_S4_
FNDA:0,_ZSt23__copy_move_backward_a2ILb1EPSt6vectorIiSaIiEES3_ET1_T0_S5_S4_
FNDA:0,_ZSt13move_backwardIPSt6vectorIiSaIiEES3_ET0_T_S5_S4_
FNDA:0,_ZNSt7__equalILb1EE5equalIiEEbPKT_S4_S4_
FNDA:0,_ZSt11__equal_auxIPKiS1_EbT_S2_T0_
FNDA:0,_ZSt5equalIN9__gnu_cxx17__normal_iteratorIPKiSt6vectorIiSaIiEEEES7_EbT_S8_T0_
FNF:26
FNH:2
DA:219,0
DA:224,0
DA:225,0
DA:226,0
DA:277,0
DA:278,0
DA:319,0
DA:322,0
DA:324,0
DA:325,0
DA:326,0
DA:328,0
DA:357,0
DA:366,0
DA:367,0
DA:368,0
DA:369,0
DA:375,0
DA:380,0
DA:386,0
DA:420,612
DA:422,1224
DA:424,1224
DA:446,612
DA:455,612
DA:456,612
DA:544,0
DA:547,0
DA:548,0
DA:549,0
DA:577,0
DA:582,0
DA:590,0
DA:595,0
DA:598,0
DA:599,0
DA:658,0
DA:668,0
DA:670,0
DA:811,0
DA:813,0
DA:814,0
DA:815,0
DA:821,0
DA:825,0
DA:831,0
DA:1041,0
DA:1051,0
DA:1053,0
LF:49
LH:6
end_of_record
SF:/usr/include/c++/7/bits/stl_construct.h
FN:74,_ZSt10_ConstructISt6vectorIiSaIiEEJRKS2_EEvPT_DpOT0_
FN:74,_ZSt10_ConstructISt6vectorIiSaIiEEJS2_EEvPT_DpOT0_
FN:74,_ZSt10_ConstructISt6vectorIiSaIiEEJRS2_EEvPT_DpOT0_
FN:74,_ZSt10_ConstructISt6vectorIS0_IiSaIiEESaIS2_EEJS4_EEvPT_DpOT0_
FN:97,_ZSt8_DestroyISt6vectorIS0_IiSaIiEESaIS2_EEEvPT_
FN:97,_ZSt8_DestroyISt6vectorIiSaIiEEEvPT_
FN:105,_ZNSt12_Destroy_auxILb0EE9__destroyIPSt6vectorIS2_IiSaIiEESaIS4_EEEEvT_S8_
FN:105,_ZNSt12_Destroy_auxILb0EE9__destroyIPSt6vectorIiSaIiEEEEvT_S6_
FN:117,_ZNSt12_Destroy_auxILb1EE9__destroyIPiEEvT_S3_
FN:117,_ZNSt12_Destroy_auxILb1EE9__destroyIN9__gnu_cxx17__normal_iteratorIPiSt6vectorIiSaIiEEEEEEvT_S9_
FN:127,_ZSt8_DestroyIN9__gnu_cxx17__normal_iteratorIPiSt6vectorIiSaIiEEEEEvT_S7_
FN:127,_ZSt8_DestroyIPSt6vectorIS0_IiSaIiEESaIS2_EEEvT_S6_
FN:127,_ZSt8_DestroyIPiEvT_S1_
FN:127,_ZSt8_DestroyIPSt6vectorIiSaIiEEEvT_S4_
FN:203,_ZSt8_DestroyIPiiEvT_S1_RSaIT0_E
FN:203,_ZSt8_DestroyIPSt6vectorIiSaIiEES2_EvT_S4_RSaIT0_E
FN:203,_ZSt8_DestroyIN9__gnu_cxx17__normal_iteratorIPiSt6vectorIiSaIiEEEEiEvT_S7_RSaIT0_E
FN:203,_ZSt8_DestroyIPSt6vectorIS0_IiSaIiEESaIS2_EES4_EvT_S6_RSaIT0_E
FNDA:0,_ZSt10_ConstructISt6vectorIS0_IiSaIiEESaIS2_EEJS4_EEvPT_DpOT0_
FNDA:0,_ZSt10_ConstructISt6vectorIiSaIiEEJS2_EEvPT_DpOT0_
FNDA:0,_ZSt10_ConstructISt6vectorIiSaIiEEJRS2_EEvPT_DpOT0_
FNDA:0,_ZSt10_ConstructISt6vectorIiSaIiEEJRKS2_EEvPT_DpOT0_
FNDA:0,_ZSt8_DestroyISt6vectorIS0_IiSaIiEESaIS2_EEEvPT_
FNDA:0,_ZSt8_DestroyISt6vectorIiSaIiEEEvPT_
FNDA:0,_ZNSt12_Destroy_auxILb0EE9__destroyIPSt6vectorIS2_IiSaIiEESaIS4_EEEEvT_S8_
FNDA:0,_ZNSt12_Destroy_auxILb0EE9__destroyIPSt6vectorIiSaIiEEEEvT_S6_
FNDA:0,_ZNSt12_Destroy_auxILb1EE9__destroyIN9__gnu_cxx17__normal_iteratorIPiSt6vectorIiSaIiEEEEEEvT_S9_
FNDA:0,_ZNSt12_Destroy_auxILb1EE9__destroyIPiEEvT_S3_
FNDA:0,_ZSt8_DestroyIN9__gnu_cxx17__normal_iteratorIPiSt6vectorIiSaIiEEEEEvT_S7_
FNDA:0,_ZSt8_DestroyIPSt6vectorIS0_IiSaIiEESaIS2_EEEvT_S6_
FNDA:0,_ZSt8_DestroyIPSt6vectorIiSaIiEEEvT_S4_
FNDA:0,_ZSt8_DestroyIPiEvT_S1_
FNDA:0,_ZSt8_DestroyIN9__gnu_cxx17__normal_iteratorIPiSt6vectorIiSaIiEEEEiEvT_S7_RSaIT0_E
FNDA:0,_ZSt8_DestroyIPSt6vectorIS0_IiSaIiEESaIS2_EES4_EvT_S6_RSaIT0_E
FNDA:0,_ZSt8_DestroyIPSt6vectorIiSaIiEES2_EvT_S4_RSaIT0_E
FNDA:0,_ZSt8_DestroyIPiiEvT_S1_RSaIT0_E
FNF:18
FNH:0
DA:74,0
DA:75,0
DA:97,0
DA:98,0
DA:105,0
DA:107,0
DA:108,0
DA:109,0
DA:117,0
DA:127,0
DA:137,0
DA:138,0
DA:203,0
DA:206,0
DA:207,0
LF:15
LH:0
end_of_record
SF:/usr/include/c++/7/bits/stl_iterator.h
FN:782,_ZN9__gnu_cxx17__normal_iteratorIPSt6vectorIS1_IiSaIiEESaIS3_EES1_IS5_SaIS5_EEEC2ERKS6_
FN:782,_ZN9__gnu_cxx17__normal_iteratorIPKSt6vectorIiSaIiEES1_IS3_SaIS3_EEEC2ERKS5_
FN:782,_ZN9__gnu_cxx17__normal_iteratorIPKiSt6vectorIiSaIiEEEC2ERKS2_
FN:782,_ZN9__gnu_cxx17__normal_iteratorIPKSt6vectorIS1_IiSaIiEESaIS3_EES1_IS5_SaIS5_EEEC2ERKS7_
FN:782,_ZN9__gnu_cxx17__normal_iteratorIPiSt6vectorIiSaIiEEEC2ERKS1_
FN:782,_ZN9__gnu_cxx17__normal_iteratorIPSt6vectorIiSaIiEES1_IS3_SaIS3_EEEC2ERKS4_
FN:787,_ZN9__gnu_cxx17__normal_iteratorIPKSt6vectorIiSaIiEES1_IS3_SaIS3_EEEC2IPS3_EERKNS0_IT_NS_11__enable_ifIXsrSt10__are_sameISB_SA_E7__valueES7_E6__typeEEE
FN:795,_ZNK9__gnu_cxx17__normal_iteratorIPKSt6vectorIS1_IiSaIiEESaIS3_EES1_IS5_SaIS5_EEEdeEv
FN:795,_ZNK9__gnu_cxx17__normal_iteratorIPKSt6vectorIiSaIiEES1_IS3_SaIS3_EEEdeEv
FN:795,_ZNK9__gnu_cxx17__normal_iteratorIPSt6vectorIS1_IiSaIiEESaIS3_EES1_IS5_SaIS5_EEEdeEv
FN:795,_ZNK9__gnu_cxx17__normal_iteratorIPSt6vectorIiSaIiEES1_IS3_SaIS3_EEEdeEv
FN:803,_ZN9__gnu_cxx17__normal_iteratorIPSt6vectorIS1_IiSaIiEESaIS3_EES1_IS5_SaIS5_EEEppEv
FN:803,_ZN9__gnu_cxx17__normal_iteratorIPSt6vectorIiSaIiEES1_IS3_SaIS3_EEEppEv
FN:803,_ZN9__gnu_cxx17__normal_iteratorIPKSt6vectorIS1_IiSaIiEESaIS3_EES1_IS5_SaIS5_EEEppEv
FN:803,_ZN9__gnu_cxx17__normal_iteratorIPKSt6vectorIiSaIiEES1_IS3_SaIS3_EEEppEv
FN:831,_ZN9__gnu_cxx17__normal_iteratorIPSt6vectorIiSaIiEES1_IS3_SaIS3_EEEpLEl
FN:835,_ZNK9__gnu_cxx17__normal_iteratorIPSt6vectorIiSaIiEES1_IS3_SaIS3_EEEplEl
FN:847,_ZNK9__gnu_cxx17__normal_iteratorIPKSt6vectorIS1_IiSaIiEESaIS3_EES1_IS5_SaIS5_EEE4baseEv
FN:847,_ZNK9__gnu_cxx17__normal_iteratorIPKSt6vectorIiSaIiEES1_IS3_SaIS3_EEE4baseEv
FN:847,_ZNK9__gnu_cxx17__normal_iteratorIPSt6vectorIS1_IiSaIiEESaIS3_EES1_IS5_SaIS5_EEE4baseEv
FN:847,_ZNK9__gnu_cxx17__normal_iteratorIPKiSt6vectorIiSaIiEEE4baseEv
FN:847,_ZNK9__gnu_cxx17__normal_iteratorIPSt6vectorIiSaIiEES1_IS3_SaIS3_EEE4baseEv
FN:847,_ZNK9__gnu_cxx17__normal_iteratorIPiSt6vectorIiSaIiEEE4baseEv
FN:883,_ZN9__gnu_cxxneIPKSt6vectorIiSaIiEES1_IS3_SaIS3_EEEEbRKNS_17__normal_iteratorIT_T0_EESD_
FN:883,_ZN9__gnu_cxxneIPSt6vectorIS1_IiSaIiEESaIS3_EES1_IS5_SaIS5_EEEEbRKNS_17__normal_iteratorIT_T0_EESE_
FN:883,_ZN9__gnu_cxxneIPKSt6vectorIS1_IiSaIiEESaIS3_EES1_IS5_SaIS5_EEEEbRKNS_17__normal_iteratorIT_T0_EESF_
FN:883,_ZN9__gnu_cxxneIPSt6vectorIiSaIiEES1_IS3_SaIS3_EEEEbRKNS_17__normal_iteratorIT_T0_EESC_
FN:965,_ZN9__gnu_cxxmiIPSt6vectorIiSaIiEES1_IS3_SaIS3_EEEENS_17__normal_iteratorIT_T0_E15difference_typeERKSA_SD_
FN:965,_ZN9__gnu_cxxmiIPKSt6vectorIiSaIiEES1_IS3_SaIS3_EEEENS_17__normal_iteratorIT_T0_E15difference_typeERKSB_SE_
FN:965,_ZN9__gnu_cxxmiIPSt6vectorIS1_IiSaIiEESaIS3_EES1_IS5_SaIS5_EEEENS_17__normal_iteratorIT_T0_E15difference_typeERKSC_SF_
FN:986,_ZSt12__niter_baseIPKiSt6vectorIiSaIiEEET_N9__gnu_cxx17__normal_iteratorIS5_T0_EE
FN:986,_ZSt12__niter_baseIPSt6vectorIiSaIiEES0_IS2_SaIS2_EEET_N9__gnu_cxx17__normal_iteratorIS6_T0_EE
FN:986,_ZSt12__niter_baseIPiSt6vectorIiSaIiEEET_N9__gnu_cxx17__normal_iteratorIS4_T0_EE
FN:1039,_ZNSt13move_iteratorIPSt6vectorIiSaIiEEEC2ES3_
FN:1039,_ZNSt13move_iteratorIPSt6vectorIS0_IiSaIiEESaIS2_EEEC2ES5_
FN:1048,_ZNKSt13move_iteratorIPSt6vectorIiSaIiEEE4baseEv
FN:1048,_ZNKSt13move_iteratorIPSt6vectorIS0_IiSaIiEESaIS2_EEE4baseEv
FN:1052,_ZNKSt13move_iteratorIPSt6vectorIiSaIiEEEdeEv
FN:1052,_ZNKSt13move_iteratorIPSt6vectorIS0_IiSaIiEESaIS2_EEEdeEv
FN:1060,_ZNSt13move_iteratorIPSt6vectorIS0_IiSaIiEESaIS2_EEEppEv
FN:1060,_ZNSt13move_iteratorIPSt6vectorIiSaIiEEEppEv
FN:1127,_ZSteqIPSt6vectorIiSaIiEEEbRKSt13move_iteratorIT_ES8_
FN:1127,_ZSteqIPSt6vectorIS0_IiSaIiEESaIS2_EEEbRKSt13move_iteratorIT_ESA_
FN:1139,_ZStneIPSt6vectorIiSaIiEEEbRKSt13move_iteratorIT_ES8_
FN:1139,_ZStneIPSt6vectorIS0_IiSaIiEESaIS2_EEEbRKSt13move_iteratorIT_ESA_
FN:1207,_ZSt18make_move_iteratorIPSt6vectorIiSaIiEEESt13move_iteratorIT_ES5_
FN:1224,_ZSt32__make_move_if_noexcept_iteratorISt6vectorIS0_IiSaIiEESaIS2_EESt13move_iteratorIPS4_EET0_PT_
FN:1224,_ZSt32__make_move_if_noexcept_iteratorISt6vectorIiSaIiEESt13move_iteratorIPS2_EET0_PT_
FNDA:0,_ZN9__gnu_cxx17__normal_iteratorIPiSt6vectorIiSaIiEEEC2ERKS1_
FNDA:0,_ZN9__gnu_cxx17__normal_iteratorIPKiSt6vectorIiSaIiEEEC2ERKS2_
FNDA:0,_ZN9__gnu_cxx17__normal_iteratorIPSt6vectorIS1_IiSaIiEESaIS3_EES1_IS5_SaIS5_EEEC2ERKS6_
FNDA:108,_ZN9__gnu_cxx17__normal_iteratorIPKSt6vectorIS1_IiSaIiEESaIS3_EES1_IS5_SaIS5_EEEC2ERKS7_
FNDA:0,_ZN9__gnu_cxx17__normal_iteratorIPKSt6vectorIiSaIiEES1_IS3_SaIS3_EEEC2ERKS5_
FNDA:0,_ZN9__gnu_cxx17__normal_iteratorIPSt6vectorIiSaIiEES1_IS3_SaIS3_EEEC2ERKS4_
FNDA:2637,_ZN9__gnu_cxx17__normal_iteratorIPKSt6vectorIiSaIiEES1_IS3_SaIS3_EEEC2IPS3_EERKNS0_IT_NS_11__enable_ifIXsrSt10__are_sameISB_SA_E7__valueES7_E6__typeEEE
FNDA:213,_ZNK9__gnu_cxx17__normal_iteratorIPSt6vectorIS1_IiSaIiEESaIS3_EES1_IS5_SaIS5_EEEdeEv
FNDA:183,_ZNK9__gnu_cxx17__normal_iteratorIPKSt6vectorIS1_IiSaIiEESaIS3_EES1_IS5_SaIS5_EEEdeEv
FNDA:0,_ZNK9__gnu_cxx17__normal_iteratorIPKSt6vectorIiSaIiEES1_IS3_SaIS3_EEEdeEv
FNDA:0,_ZNK9__gnu_cxx17__normal_iteratorIPSt6vectorIiSaIiEES1_IS3_SaIS3_EEEdeEv
FNDA:213,_ZN9__gnu_cxx17__normal_iteratorIPSt6vectorIS1_IiSaIiEESaIS3_EES1_IS5_SaIS5_EEEppEv
FNDA:183,_ZN9__gnu_cxx17__normal_iteratorIPKSt6vectorIS1_IiSaIiEESaIS3_EES1_IS5_SaIS5_EEEppEv
FNDA:0,_ZN9__gnu_cxx17__normal_iteratorIPKSt6vectorIiSaIiEES1_IS3_SaIS3_EEEppEv
FNDA:0,_ZN9__gnu_cxx17__normal_iteratorIPSt6vectorIiSaIiEES1_IS3_SaIS3_EEEppEv
FNDA:612,_ZN9__gnu_cxx17__normal_iteratorIPSt6vectorIiSaIiEES1_IS3_SaIS3_EEEpLEl
FNDA:5298,_ZNK9__gnu_cxx17__normal_iteratorIPSt6vectorIiSaIiEES1_IS3_SaIS3_EEEplEl
FNDA:0,_ZNK9__gnu_cxx17__normal_iteratorIPiSt6vectorIiSaIiEEE4baseEv
FNDA:0,_ZNK9__gnu_cxx17__normal_iteratorIPKiSt6vectorIiSaIiEEE4baseEv
FNDA:0,_ZNK9__gnu_cxx17__normal_iteratorIPSt6vectorIS1_IiSaIiEESaIS3_EES1_IS5_SaIS5_EEE4baseEv
FNDA:474,_ZNK9__gnu_cxx17__normal_iteratorIPKSt6vectorIS1_IiSaIiEESaIS3_EES1_IS5_SaIS5_EEE4baseEv
FNDA:0,_ZNK9__gnu_cxx17__normal_iteratorIPKSt6vectorIiSaIiEES1_IS3_SaIS3_EEE4baseEv
FNDA:0,_ZNK9__gnu_cxx17__normal_iteratorIPSt6vectorIiSaIiEES1_IS3_SaIS3_EEE4baseEv
FNDA:396,_ZN9__gnu_cxxneIPSt6vectorIS1_IiSaIiEESaIS3_EES1_IS5_SaIS5_EEEEbRKNS_17__normal_iteratorIT_T0_EESE_
FNDA:237,_ZN9__gnu_cxxneIPKSt6vectorIS1_IiSaIiEESaIS3_EES1_IS5_SaIS5_EEEEbRKNS_17__normal_iteratorIT_T0_EESF_
FNDA:0,_ZN9__gnu_cxxneIPKSt6vectorIiSaIiEES1_IS3_SaIS3_EEEEbRKNS_17__normal_iteratorIT_T0_EESD_
FNDA:0,_ZN9__gnu_cxxneIPSt6vectorIiSaIiEES1_IS3_SaIS3_EEEEbRKNS_17__normal_iteratorIT_T0_EESC_
FNDA:0,_ZN9__gnu_cxxmiIPSt6vectorIS1_IiSaIiEESaIS3_EES1_IS5_SaIS5_EEEENS_17__normal_iteratorIT_T0_E15difference_typeERKSC_SF_
FNDA:0,_ZN9__gnu_cxxmiIPSt6vectorIiSaIiEES1_IS3_SaIS3_EEEENS_17__normal_iteratorIT_T0_E15difference_typeERKSA_SD_
FNDA:2637,_ZN9__gnu_cxxmiIPKSt6vectorIiSaIiEES1_IS3_SaIS3_EEEENS_17__normal_iteratorIT_T0_E15difference_typeERKSB_SE_
FNDA:0,_ZSt12__niter_baseIPiSt6vectorIiSaIiEEET_N9__gnu_cxx17__normal_iteratorIS4_T0_EE
FNDA:0,_ZSt12__niter_baseIPSt6vectorIiSaIiEES0_IS2_SaIS2_EEET_N9__gnu_cxx17__normal_iteratorIS6_T0_EE
FNDA:0,_ZSt12__niter_baseIPKiSt6vectorIiSaIiEEET_N9__gnu_cxx17__normal_iteratorIS5_T0_EE
FNDA:0,_ZNSt13move_iteratorIPSt6vectorIS0_IiSaIiEESaIS2_EEEC2ES5_
FNDA:0,_ZNSt13move_iteratorIPSt6vectorIiSaIiEEEC2ES3_
FNDA:0,_ZNKSt13move_iteratorIPSt6vectorIS0_IiSaIiEESaIS2_EEE4baseEv
FNDA:0,_ZNKSt13move_iteratorIPSt6vectorIiSaIiEEE4baseEv
FNDA:0,_ZNKSt13move_iteratorIPSt6vectorIS0_IiSaIiEESaIS2_EEEdeEv
FNDA:0,_ZNKSt13move_iteratorIPSt6vectorIiSaIiEEEdeEv
FNDA:0,_ZNSt13move_iteratorIPSt6vectorIS0_IiSaIiEESaIS2_EEEppEv
FNDA:0,_ZNSt13move_iteratorIPSt6vectorIiSaIiEEEppEv
FNDA:0,_ZSteqIPSt6vectorIS0_IiSaIiEESaIS2_EEEbRKSt13move_iteratorIT_ESA_
FNDA:0,_ZSteqIPSt6vectorIiSaIiEEEbRKSt13move_iteratorIT_ES8_
FNDA:0,_ZStneIPSt6vectorIS0_IiSaIiEESaIS2_EEEbRKSt13move_iteratorIT_ESA_
FNDA:0,_ZStneIPSt6vectorIiSaIiEEEbRKSt13move_iteratorIT_ES8_
FNDA:1224,_ZSt18make_move_iteratorIPSt6vectorIiSaIiEEESt13move_iteratorIT_ES5_
FNDA:0,_ZSt32__make_move_if_noexcept_iteratorISt6vectorIS0_IiSaIiEESaIS2_EESt13move_iteratorIPS4_EET0_PT_
FNDA:0,_ZSt32__make_move_if_noexcept_iteratorISt6vectorIiSaIiEESt13move_iteratorIPS2_EET0_PT_
FNF:48
FNH:13
DA:782,108
DA:783,108
DA:787,2637
DA:791,2637
DA:795,396
DA:796,396
DA:803,396
DA:805,396
DA:806,396
DA:831,612
DA:832,612
DA:835,5298
DA:836,5298
DA:847,474
DA:848,474
DA:883,633
DA:886,633
DA:965,2637
DA:968,2637
DA:986,0
DA:987,0
DA:1039,0
DA:1040,0
DA:1048,0
DA:1049,0
DA:1052,0
DA:1053,0
DA:1060,0
DA:1062,0
DA:1063,0
DA:1127,0
DA:1129,0
DA:1139,0
DA:1141,0
DA:1207,1224
DA:1208,1224
DA:1224,0
DA:1225,0
LF:38
LH:21
end_of_record
SF:/usr/include/c++/7/bits/stl_iterator_base_funcs.h
FN:98,_ZSt10__distanceIN9__gnu_cxx17__normal_iteratorIPSt6vectorIiSaIiEES2_IS4_SaIS4_EEEEENSt15iterator_traitsIT_E15difference_typeESA_SA_St26random_access_iterator_tag
FN:98,_ZSt10__distanceIPKiENSt15iterator_traitsIT_E15difference_typeES3_S3_St26random_access_iterator_tag
FN:98,_ZSt10__distanceIPKSt6vectorIiSaIiEEENSt15iterator_traitsIT_E15difference_typeES6_S6_St26random_access_iterator_tag
FN:138,_ZSt8distanceIN9__gnu_cxx17__normal_iteratorIPSt6vectorIiSaIiEES2_IS4_SaIS4_EEEEENSt15iterator_traitsIT_E15difference_typeESA_SA_
FN:138,_ZSt8distanceIPKiENSt15iterator_traitsIT_E15difference_typeES3_S3_
FN:138,_ZSt8distanceIPKSt6vectorIiSaIiEEENSt15iterator_traitsIT_E15difference_typeES6_S6_
FN:174,_ZSt9__advanceIN9__gnu_cxx17__normal_iteratorIPSt6vectorIiSaIiEES2_IS4_SaIS4_EEEElEvRT_T0_St26random_access_iterator_tag
FN:197,_ZSt7advanceIN9__gnu_cxx17__normal_iteratorIPSt6vectorIiSaIiEES2_IS4_SaIS4_EEEEmEvRT_T0_
FNDA:2460,_ZSt10__distanceIN9__gnu_cxx17__normal_iteratorIPSt6vectorIiSaIiEES2_IS4_SaIS4_EEEEENSt15iterator_traitsIT_E15difference_typeESA_SA_St26random_access_iterator_tag
FNDA:0,_ZSt10__distanceIPKiENSt15iterator_traitsIT_E15difference_typeES3_S3_St26random_access_iterator_tag
FNDA:0,_ZSt10__distanceIPKSt6vectorIiSaIiEEENSt15iterator_traitsIT_E15difference_typeES6_S6_St26random_access_iterator_tag
FNDA:2460,_ZSt8distanceIN9__gnu_cxx17__normal_iteratorIPSt6vectorIiSaIiEES2_IS4_SaIS4_EEEEENSt15iterator_traitsIT_E15difference_typeESA_SA_
FNDA:0,_ZSt8distanceIPKiENSt15iterator_traitsIT_E15difference_typeES3_S3_
FNDA:0,_ZSt8distanceIPKSt6vectorIiSaIiEEENSt15iterator_traitsIT_E15difference_typeES6_S6_
FNDA:612,_ZSt9__advanceIN9__gnu_cxx17__normal_iteratorIPSt6vectorIiSaIiEES2_IS4_SaIS4_EEEElEvRT_T0_St26random_access_iterator_tag
FNDA:612,_ZSt7advanceIN9__gnu_cxx17__normal_iteratorIPSt6vectorIiSaIiEES2_IS4_SaIS4_EEEEmEvRT_T0_
FNF:8
FNH:4
DA:98,2460
DA:104,2460
DA:138,2460
DA:141,0
DA:142,2460
DA:174,612
DA:180,612
DA:181,612
DA:197,612
DA:200,612
DA:201,612
DA:202,612
LF:12
LH:11
end_of_record
SF:/usr/include/c++/7/bits/stl_iterator_base_types.h
FN:205,_ZSt19__iterator_categoryIPKSt6vectorIiSaIiEEENSt15iterator_traitsIT_E17iterator_categoryERKS6_
FN:205,_ZSt19__iterator_categoryIN9__gnu_cxx17__normal_iteratorIPSt6vectorIiSaIiEES2_IS4_SaIS4_EEEEENSt15iterator_traitsIT_E17iterator_categoryERKSA_
FN:205,_ZSt19__iterator_categoryIPKiENSt15iterator_traitsIT_E17iterator_categoryERKS3_
FNDA:0,_ZSt19__iterator_categoryIPKiENSt15iterator_traitsIT_E17iterator_categoryERKS3_
FNDA:0,_ZSt19__iterator_categoryIPKSt6vectorIiSaIiEEENSt15iterator_traitsIT_E17iterator_categoryERKS6_
FNDA:5709,_ZSt19__iterator_categoryIN9__gnu_cxx17__normal_iteratorIPSt6vectorIiSaIiEES2_IS4_SaIS4_EEEEENSt15iterator_traitsIT_E17iterator_categoryERKSA_
FNF:3
FNH:1
DA:205,5709
DA:206,5709
LF:2
LH:2
end_of_record
SF:/usr/include/c++/7/bits/stl_uninitialized.h
FN:76,_ZNSt20__uninitialized_copyILb0EE13__uninit_copyISt13move_iteratorIPSt6vectorIiSaIiEEES6_EET0_T_S9_S8_
FN:76,_ZNSt20__uninitialized_copyILb0EE13__uninit_copyIN9__gnu_cxx17__normal_iteratorIPSt6vectorIiSaIiEES4_IS6_SaIS6_EEEES7_EET0_T_SC_SB_
FN:76,_ZNSt20__uninitialized_copyILb0EE13__uninit_copyIPKSt6vectorIiSaIiEEPS4_EET0_T_S9_S8_
FN:76,_ZNSt20__uninitialized_copyILb0EE13__uninit_copyIN9__gnu_cxx17__normal_iteratorIPKSt6vectorIiSaIiEES4_IS6_SaIS6_EEEEPS6_EET0_T_SE_SD_
FN:76,_ZNSt20__uninitialized_copyILb0EE13__uninit_copyISt13move_iteratorIPSt6vectorIS3_IiSaIiEESaIS5_EEES8_EET0_T_SB_SA_
FN:99,_ZNSt20__uninitialized_copyILb1EE13__uninit_copyIPKiPiEET0_T_S6_S5_
FN:99,_ZNSt20__uninitialized_copyILb1EE13__uninit_copyIPiS2_EET0_T_S4_S3_
FN:99,_ZNSt20__uninitialized_copyILb1EE13__uninit_copyIN9__gnu_cxx17__normal_iteratorIPKiSt6vectorIiSaIiEEEEPiEET0_T_SC_SB_
FN:115,_ZSt18uninitialized_copyIPiS0_ET0_T_S2_S1_
FN:115,_ZSt18uninitialized_copyIN9__gnu_cxx17__normal_iteratorIPSt6vectorIiSaIiEES2_IS4_SaIS4_EEEES5_ET0_T_SA_S9_
FN:115,_ZSt18uninitialized_copyIN9__gnu_cxx17__normal_iteratorIPKiSt6vectorIiSaIiEEEEPiET0_T_SA_S9_
FN:115,_ZSt18uninitialized_copyIPKiPiET0_T_S4_S3_
FN:115,_ZSt18uninitialized_copyIN9__gnu_cxx17__normal_iteratorIPKSt6vectorIiSaIiEES2_IS4_SaIS4_EEEEPS4_ET0_T_SC_SB_
FN:115,_ZSt18uninitialized_copyISt13move_iteratorIPSt6vectorIiSaIiEEES4_ET0_T_S7_S6_
FN:115,_ZSt18uninitialized_copyIPKSt6vectorIiSaIiEEPS2_ET0_T_S7_S6_
FN:115,_ZSt18uninitialized_copyISt13move_iteratorIPSt6vectorIS1_IiSaIiEESaIS3_EEES6_ET0_T_S9_S8_
FN:287,_ZSt22__uninitialized_copy_aIPKiPiiET0_T_S4_S3_RSaIT1_E
FN:287,_ZSt22__uninitialized_copy_aIN9__gnu_cxx17__normal_iteratorIPKSt6vectorIiSaIiEES2_IS4_SaIS4_EEEEPS4_S4_ET0_T_SC_SB_RSaIT1_E
FN:287,_ZSt22__uninitialized_copy_aIN9__gnu_cxx17__normal_iteratorIPKiSt6vectorIiSaIiEEEEPiiET0_T_SA_S9_RSaIT1_E
FN:287,_ZSt22__uninitialized_copy_aIN9__gnu_cxx17__normal_iteratorIPSt6vectorIiSaIiEES2_IS4_SaIS4_EEEES5_S4_ET0_T_SA_S9_RSaIT1_E
FN:287,_ZSt22__uninitialized_copy_aISt13move_iteratorIPSt6vectorIiSaIiEEES4_S3_ET0_T_S7_S6_RSaIT1_E
FN:287,_ZSt22__uninitialized_copy_aISt13move_iteratorIPSt6vectorIS1_IiSaIiEESaIS3_EEES6_S5_ET0_T_S9_S8_RSaIT1_E
FN:287,_ZSt22__uninitialized_copy_aIPKSt6vectorIiSaIiEEPS2_S2_ET0_T_S7_S6_RSaIT1_E
FN:287,_ZSt22__uninitialized_copy_aIPiS0_iET0_T_S2_S1_RSaIT1_E
FN:294,_ZSt22__uninitialized_move_aIPSt6vectorIiSaIiEES3_SaIS2_EET0_T_S6_S5_RT1_
FN:305,_ZSt34__uninitialized_move_if_noexcept_aIPSt6vectorIiSaIiEES3_SaIS2_EET0_T_S6_S5_RT1_
FN:305,_ZSt34__uninitialized_move_if_noexcept_aIPSt6vectorIS0_IiSaIiEESaIS2_EES5_SaIS4_EET0_T_S8_S7_RT1_
FNDA:0,_ZNSt20__uninitialized_copyILb0EE13__uninit_copyISt13move_iteratorIPSt6vectorIS3_IiSaIiEESaIS5_EEES8_EET0_T_SB_SA_
FNDA:0,_ZNSt20__uninitialized_copyILb0EE13__uninit_copyISt13move_iteratorIPSt6vectorIiSaIiEEES6_EET0_T_S9_S8_
FNDA:2460,_ZNSt20__uninitialized_copyILb0EE13__uninit_copyIN9__gnu_cxx17__normal_iteratorIPSt6vectorIiSaIiEES4_IS6_SaIS6_EEEES7_EET0_T_SC_SB_
FNDA:0,_ZNSt20__uninitialized_copyILb0EE13__uninit_copyIPKSt6vectorIiSaIiEEPS4_EET0_T_S9_S8_
FNDA:0,_ZNSt20__uninitialized_copyILb0EE13__uninit_copyIN9__gnu_cxx17__normal_iteratorIPKSt6vectorIiSaIiEES4_IS6_SaIS6_EEEEPS6_EET0_T_SE_SD_
FNDA:0,_ZNSt20__uninitialized_copyILb1EE13__uninit_copyIPiS2_EET0_T_S4_S3_
FNDA:0,_ZNSt20__uninitialized_copyILb1EE13__uninit_copyIPKiPiEET0_T_S6_S5_
FNDA:0,_ZNSt20__uninitialized_copyILb1EE13__uninit_copyIN9__gnu_cxx17__normal_iteratorIPKiSt6vectorIiSaIiEEEEPiEET0_T_SC_SB_
FNDA:0,_ZSt18uninitialized_copyIPiS0_ET0_T_S2_S1_
FNDA:0,_ZSt18uninitialized_copyISt13move_iteratorIPSt6vectorIS1_IiSaIiEESaIS3_EEES6_ET0_T_S9_S8_
FNDA:0,_ZSt18uninitialized_copyISt13move_iteratorIPSt6vectorIiSaIiEEES4_ET0_T_S7_S6_
FNDA:2460,_ZSt18uninitialized_copyIN9__gnu_cxx17__normal_iteratorIPSt6vectorIiSaIiEES2_IS4_SaIS4_EEEES5_ET0_T_SA_S9_
FNDA:0,_ZSt18uninitialized_copyIPKiPiET0_T_S4_S3_
FNDA:0,_ZSt18uninitialized_copyIPKSt6vectorIiSaIiEEPS2_ET0_T_S7_S6_
FNDA:0,_ZSt18uninitialized_copyIN9__gnu_cxx17__normal_iteratorIPKSt6vectorIiSaIiEES2_IS4_SaIS4_EEEEPS4_ET0_T_SC_SB_
FNDA:0,_ZSt18uninitialized_copyIN9__gnu_cxx17__normal_iteratorIPKiSt6vectorIiSaIiEEEEPiET0_T_SA_S9_
FNDA:0,_ZSt22__uninitialized_copy_aIPiS0_iET0_T_S2_S1_RSaIT1_E
FNDA:0,_ZSt22__uninitialized_copy_aISt13move_iteratorIPSt6vectorIS1_IiSaIiEESaIS3_EEES6_S5_ET0_T_S9_S8_RSaIT1_E
FNDA:0,_ZSt22__uninitialized_copy_aISt13move_iteratorIPSt6vectorIiSaIiEEES4_S3_ET0_T_S7_S6_RSaIT1_E
FNDA:2460,_ZSt22__uninitialized_copy_aIN9__gnu_cxx17__normal_iteratorIPSt6vectorIiSaIiEES2_IS4_SaIS4_EEEES5_S4_ET0_T_SA_S9_RSaIT1_E
FNDA:0,_ZSt22__uninitialized_copy_aIPKiPiiET0_T_S4_S3_RSaIT1_E
FNDA:0,_ZSt22__uninitialized_copy_aIPKSt6vectorIiSaIiEEPS2_S2_ET0_T_S7_S6_RSaIT1_E
FNDA:0,_ZSt22__uninitialized_copy_aIN9__gnu_cxx17__normal_iteratorIPKSt6vectorIiSaIiEES2_IS4_SaIS4_EEEEPS4_S4_ET0_T_SC_SB_RSaIT1_E
FNDA:0,_ZSt22__uninitialized_copy_aIN9__gnu_cxx17__normal_iteratorIPKiSt6vectorIiSaIiEEEEPiiET0_T_SA_S9_RSaIT1_E
FNDA:612,_ZSt22__uninitialized_move_aIPSt6vectorIiSaIiEES3_SaIS2_EET0_T_S6_S5_RT1_
FNDA:0,_ZSt34__uninitialized_move_if_noexcept_aIPSt6vectorIS0_IiSaIiEESaIS2_EES5_SaIS4_EET0_T_S8_S7_RT1_
FNDA:0,_ZSt34__uninitialized_move_if_noexcept_aIPSt6vectorIiSaIiEES3_SaIS2_EET0_T_S6_S5_RT1_
FNF:27
FNH:4
DA:76,2460
DA:79,2460
DA:82,18516
DA:83,8028
DA:84,2460
DA:86,0
DA:88,0
DA:89,0
DA:99,0
DA:101,0
DA:115,2460
DA:128,2460
DA:134,2460
DA:287,2460
DA:289,2460
DA:294,612
DA:297,612
DA:299,612
DA:305,0
DA:311,0
DA:312,0
LF:21
LH:13
end_of_record
SF:/usr/include/c++/7/bits/stl_vector.h
FN:81,_ZNSt12_Vector_baseISt6vectorIiSaIiEESaIS2_EE12_Vector_implD2Ev
FN:81,_ZNSt12_Vector_baseISt6vectorIS0_IiSaIiEESaIS2_EESaIS4_EE12_Vector_implD2Ev
FN:81,_ZNSt12_Vector_baseIiSaIiEE12_Vector_implD2Ev
FN:88,_ZNSt12_Vector_baseISt6vectorIiSaIiEESaIS2_EE12_Vector_implC2Ev
FN:88,_ZNSt12_Vector_baseISt6vectorIS0_IiSaIiEESaIS2_EESaIS4_EE12_Vector_implC2Ev
FN:92,_ZNSt12_Vector_baseIiSaIiEE12_Vector_implC2ERKS0_
FN:92,_ZNSt12_Vector_baseISt6vectorIiSaIiEESaIS2_EE12_Vector_implC2ERKS3_
FN:97,_ZNSt12_Vector_baseIiSaIiEE12_Vector_implC2EOS0_
FN:97,_ZNSt12_Vector_baseISt6vectorIiSaIiEESaIS2_EE12_Vector_implC2EOS3_
FN:103,_ZNSt12_Vector_baseIiSaIiEE12_Vector_impl12_M_swap_dataERS2_
FN:103,_ZNSt12_Vector_baseISt6vectorIiSaIiEESaIS2_EE12_Vector_impl12_M_swap_dataERS5_
FN:115,_ZNSt12_Vector_baseIiSaIiEE19_M_get_Tp_allocatorEv
FN:115,_ZNSt12_Vector_baseISt6vectorIiSaIiEESaIS2_EE19_M_get_Tp_allocatorEv
FN:115,_ZNSt12_Vector_baseISt6vectorIS0_IiSaIiEESaIS2_EESaIS4_EE19_M_get_Tp_allocatorEv
FN:119,_ZNKSt12_Vector_baseISt6vectorIiSaIiEESaIS2_EE19_M_get_Tp_allocatorEv
FN:119,_ZNKSt12_Vector_baseIiSaIiEE19_M_get_Tp_allocatorEv
FN:119,_ZNKSt12_Vector_baseISt6vectorIS0_IiSaIiEESaIS2_EESaIS4_EE19_M_get_Tp_allocatorEv
FN:123,_ZNKSt12_Vector_baseISt6vectorIiSaIiEESaIS2_EE13get_allocatorEv
FN:123,_ZNKSt12_Vector_baseIiSaIiEE13get_allocatorEv
FN:126,_ZNSt12_Vector_baseISt6vectorIiSaIiEESaIS2_EEC2Ev
FN:126,_ZNSt12_Vector_baseISt6vectorIS0_IiSaIiEESaIS2_EESaIS4_EEC2Ev
FN:129,_ZNSt12_Vector_baseISt6vectorIiSaIiEESaIS2_EEC2ERKS3_
FN:129,_ZNSt12_Vector_baseIiSaIiEEC2ERKS0_
FN:136,_ZNSt12_Vector_baseISt6vectorIiSaIiEESaIS2_EEC2EmRKS3_
FN:136,_ZNSt12_Vector_baseIiSaIiEEC2EmRKS0_
FN:144,_ZNSt12_Vector_baseIiSaIiEEC2EOS1_
FN:144,_ZNSt12_Vector_baseISt6vectorIiSaIiEESaIS2_EEC2EOS4_
FN:161,_ZNSt12_Vector_baseIiSaIiEED2Ev
FN:161,_ZNSt12_Vector_baseISt6vectorIiSaIiEESaIS2_EED2Ev
FN:161,_ZNSt12_Vector_baseISt6vectorIS0_IiSaIiEESaIS2_EESaIS4_EED2Ev
FN:169,_ZNSt12_Vector_baseIiSaIiEE11_M_allocateEm
FN:169,_ZNSt12_Vector_baseISt6vectorIiSaIiEESaIS2_EE11_M_allocateEm
FN:169,_ZNSt12_Vector_baseISt6vectorIS0_IiSaIiEESaIS2_EESaIS4_EE11_M_allocateEm
FN:176,_ZNSt12_Vector_baseISt6vectorIiSaIiEESaIS2_EE13_M_deallocateEPS2_m
FN:176,_ZNSt12_Vector_baseISt6vectorIS0_IiSaIiEESaIS2_EESaIS4_EE13_M_deallocateEPS4_m
FN:176,_ZNSt12_Vector_baseIiSaIiEE13_M_deallocateEPim
FN:185,_ZNSt12_Vector_baseISt6vectorIiSaIiEESaIS2_EE17_M_create_storageEm
FN:185,_ZNSt12_Vector_baseIiSaIiEE17_M_create_storageEm
FN:259,_ZNSt6vectorIS_IS_IiSaIiEESaIS1_EESaIS3_EEC2Ev
FN:259,_ZNSt6vectorIS_IiSaIiEESaIS1_EEC2Ev
FN:270,_ZNSt6vectorIS_IiSaIiEESaIS1_EEC2ERKS2_
FN:270,_ZNSt6vectorIiSaIiEEC2ERKS0_
FN:326,_ZNSt6vectorIiSaIiEEC2ERKS1_
FN:326,_ZNSt6vectorIS_IiSaIiEESaIS1_EEC2ERKS3_
FN:344,_ZNSt6vectorIS_IiSaIiEESaIS1_EEC2EOS3_
FN:344,_ZNSt6vectorIiSaIiEEC2EOS1_
FN:383,_ZNSt6vectorIiSaIiEEC2ESt16initializer_listIiERKS0_
FN:383,_ZNSt6vectorIS_IiSaIiEESaIS1_EEC2ESt16initializer_listIS1_ERKS2_
FN:433,_ZNSt6vectorIS_IS_IiSaIiEESaIS1_EESaIS3_EED2Ev
FN:433,_ZNSt6vectorIiSaIiEED2Ev
FN:433,_ZNSt6vectorIS_IiSaIiEESaIS1_EED2Ev
FN:461,_ZNSt6vectorIiSaIiEEaSEOS1_
FN:461,_ZNSt6vectorIS_IiSaIiEESaIS1_EEaSEOS3_
FN:563,_ZNSt6vectorIS_IiSaIiEESaIS1_EE5beginEv
FN:563,_ZNSt6vectorIS_IS_IiSaIiEESaIS1_EESaIS3_EE5beginEv
FN:563,_ZNSt6vectorIiSaIiEE5beginEv
FN:572,_ZNKSt6vectorIS_IS_IiSaIiEESaIS1_EESaIS3_EE5beginEv
FN:572,_ZNKSt6vectorIS_IiSaIiEESaIS1_EE5beginEv
FN:572,_ZNKSt6vectorIiSaIiEE5beginEv
FN:581,_ZNSt6vectorIS_IiSaIiEESaIS1_EE3endEv
FN:581,_ZNSt6vectorIiSaIiEE3endEv
FN:581,_ZNSt6vectorIS_IS_IiSaIiEESaIS1_EESaIS3_EE3endEv
FN:590,_ZNKSt6vectorIS_IiSaIiEESaIS1_EE3endEv
FN:590,_ZNKSt6vectorIS_IS_IiSaIiEESaIS1_EESaIS3_EE3endEv
FN:590,_ZNKSt6vectorIiSaIiEE3endEv
FN:636,_ZNKSt6vectorIS_IiSaIiEESaIS1_EE6cbeginEv
FN:670,_ZNKSt6vectorIiSaIiEE4sizeEv
FN:670,_ZNKSt6vectorIS_IS_IiSaIiEESaIS1_EESaIS3_EE4sizeEv
FN:670,_ZNKSt6vectorIS_IiSaIiEESaIS1_EE4sizeEv
FN:675,_ZNKSt6vectorIS_IS_IiSaIiEESaIS1_EESaIS3_EE8max_sizeEv
FN:675,_ZNKSt6vectorIS_IiSaIiEESaIS1_EE8max_sizeEv
FN:750,_ZNKSt6vectorIiSaIiEE8capacityEv
FN:795,_ZNSt6vectorIS_IiSaIiEESaIS1_EEixEm
FN:795,_ZNSt6vectorIiSaIiEEixEm
FN:813,_ZNKSt6vectorIiSaIiEEixEm
FN:813,_ZNKSt6vectorIS_IiSaIiEESaIS1_EEixEm
FN:939,_ZNSt6vectorIS_IS_IiSaIiEESaIS1_EESaIS3_EE9push_backERKS3_
FN:939,_ZNSt6vectorIS_IiSaIiEESaIS1_EE9push_backERKS1_
FN:953,_ZNSt6vectorIS_IiSaIiEESaIS1_EE9push_backEOS1_
FN:1128,_ZNSt6vectorIS_IiSaIiEESaIS1_EE6insertIN9__gnu_cxx17__normal_iteratorIPS1_S3_EEvEES8_NS6_IPKS1_S3_EET_SC_
FN:1247,_ZNSt6vectorIiSaIiEE5clearEv
FN:1257,_ZNSt6vectorIiSaIiEE20_M_allocate_and_copyIN9__gnu_cxx17__normal_iteratorIPKiS1_EEEEPimT_S9_
FN:1324,_ZNSt6vectorIiSaIiEE19_M_range_initializeIPKiEEvT_S5_St20forward_iterator_tag
FN:1324,_ZNSt6vectorIS_IiSaIiEESaIS1_EE19_M_range_initializeIPKS1_EEvT_S7_St20forward_iterator_tag
FN:1408,_ZNSt6vectorIS_IiSaIiEESaIS1_EE18_M_insert_dispatchIN9__gnu_cxx17__normal_iteratorIPS1_S3_EEEEvS8_T_S9_St12__false_type
FN:1502,_ZNKSt6vectorIS_IiSaIiEESaIS1_EE12_M_check_lenEmPKc
FN:1502,_ZNKSt6vectorIS_IS_IiSaIiEESaIS1_EESaIS3_EE12_M_check_lenEmPKc
FN:1516,_ZNSt6vectorIiSaIiEE15_M_erase_at_endEPi
FN:1534,_ZNSt6vectorIiSaIiEE14_M_move_assignEOS1_St17integral_constantIbLb1EE
FN:1534,_ZNSt6vectorIS_IiSaIiEESaIS1_EE14_M_move_assignEOS3_St17integral_constantIbLb1EE
FN:1601,_ZSteqIiSaIiEEbRKSt6vectorIT_T0_ES6_
FNDA:0,_ZNSt12_Vector_baseISt6vectorIS0_IiSaIiEESaIS2_EESaIS4_EE12_Vector_implD2Ev
FNDA:0,_ZNSt12_Vector_baseISt6vectorIiSaIiEESaIS2_EE12_Vector_implD2Ev
FNDA:0,_ZNSt12_Vector_baseIiSaIiEE12_Vector_implD2Ev
FNDA:0,_ZNSt12_Vector_baseISt6vectorIS0_IiSaIiEESaIS2_EESaIS4_EE12_Vector_implC2Ev
FNDA:0,_ZNSt12_Vector_baseISt6vectorIiSaIiEESaIS2_EE12_Vector_implC2Ev
FNDA:0,_ZNSt12_Vector_baseISt6vectorIiSaIiEESaIS2_EE12_Vector_implC2ERKS3_
FNDA:0,_ZNSt12_Vector_baseIiSaIiEE12_Vector_implC2ERKS0_
FNDA:0,_ZNSt12_Vector_baseISt6vectorIiSaIiEESaIS2_EE12_Vector_implC2EOS3_
FNDA:0,_ZNSt12_Vector_baseIiSaIiEE12_Vector_implC2EOS0_
FNDA:0,_ZNSt12_Vector_baseISt6vectorIiSaIiEESaIS2_EE12_Vector_impl12_M_swap_dataERS5_
FNDA:0,_ZNSt12_Vector_baseIiSaIiEE12_Vector_impl12_M_swap_dataERS2_
FNDA:0,_ZNSt12_Vector_baseISt6vectorIS0_IiSaIiEESaIS2_EESaIS4_EE19_M_get_Tp_allocatorEv
FNDA:0,_ZNSt12_Vector_baseISt6vectorIiSaIiEESaIS2_EE19_M_get_Tp_allocatorEv
FNDA:0,_ZNSt12_Vector_baseIiSaIiEE19_M_get_Tp_allocatorEv
FNDA:0,_ZNKSt12_Vector_baseISt6vectorIS0_IiSaIiEESaIS2_EESaIS4_EE19_M_get_Tp_allocatorEv
FNDA:0,_ZNKSt12_Vector_baseISt6vectorIiSaIiEESaIS2_EE19_M_get_Tp_allocatorEv
FNDA:0,_ZNKSt12_Vector_baseIiSaIiEE19_M_get_Tp_allocatorEv
FNDA:240,_ZNKSt12_Vector_baseIiSaIiEE13get_allocatorEv
FNDA:2949,_ZNKSt12_Vector_baseISt6vectorIiSaIiEESaIS2_EE13get_allocatorEv
FNDA:0,_ZNSt12_Vector_baseISt6vectorIS0_IiSaIiEESaIS2_EESaIS4_EEC2Ev
FNDA:0,_ZNSt12_Vector_baseISt6vectorIiSaIiEESaIS2_EEC2Ev
FNDA:0,_ZNSt12_Vector_baseIiSaIiEEC2ERKS0_
FNDA:0,_ZNSt12_Vector_baseISt6vectorIiSaIiEESaIS2_EEC2ERKS3_
FNDA:0,_ZNSt12_Vector_baseISt6vectorIiSaIiEESaIS2_EEC2EmRKS3_
FNDA:0,_ZNSt12_Vector_baseIiSaIiEEC2EmRKS0_
FNDA:0,_ZNSt12_Vector_baseISt6vectorIiSaIiEESaIS2_EEC2EOS4_
FNDA:0,_ZNSt12_Vector_baseIiSaIiEEC2EOS1_
FNDA:0,_ZNSt12_Vector_baseISt6vectorIS0_IiSaIiEESaIS2_EESaIS4_EED2Ev
FNDA:0,_ZNSt12_Vector_baseISt6vectorIiSaIiEESaIS2_EED2Ev
FNDA:0,_ZNSt12_Vector_baseIiSaIiEED2Ev
FNDA:0,_ZNSt12_Vector_baseISt6vectorIS0_IiSaIiEESaIS2_EESaIS4_EE11_M_allocateEm
FNDA:0,_ZNSt12_Vector_baseIiSaIiEE11_M_allocateEm
FNDA:0,_ZNSt12_Vector_baseISt6vectorIiSaIiEESaIS2_EE11_M_allocateEm
FNDA:0,_ZNSt12_Vector_baseISt6vectorIS0_IiSaIiEESaIS2_EESaIS4_EE13_M_deallocateEPS4_m
FNDA:0,_ZNSt12_Vector_baseISt6vectorIiSaIiEESaIS2_EE13_M_deallocateEPS2_m
FNDA:0,_ZNSt12_Vector_baseIiSaIiEE13_M_deallocateEPim
FNDA:0,_ZNSt12_Vector_baseISt6vectorIiSaIiEESaIS2_EE17_M_create_storageEm
FNDA:0,_ZNSt12_Vector_baseIiSaIiEE17_M_create_storageEm
FNDA:0,_ZNSt6vectorIS_IS_IiSaIiEESaIS1_EESaIS3_EEC2Ev
FNDA:0,_ZNSt6vectorIS_IiSaIiEESaIS1_EEC2Ev
FNDA:240,_ZNSt6vectorIiSaIiEEC2ERKS0_
FNDA:2949,_ZNSt6vectorIS_IiSaIiEESaIS1_EEC2ERKS2_
FNDA:0,_ZNSt6vectorIS_IiSaIiEESaIS1_EEC2ERKS3_
FNDA:0,_ZNSt6vectorIiSaIiEEC2ERKS1_
FNDA:0,_ZNSt6vectorIS_IiSaIiEESaIS1_EEC2EOS3_
FNDA:0,_ZNSt6vectorIiSaIiEEC2EOS1_
FNDA:0,_ZNSt6vectorIiSaIiEEC2ESt16initializer_listIiERKS0_
FNDA:0,_ZNSt6vectorIS_IiSaIiEESaIS1_EEC2ESt16initializer_listIS1_ERKS2_
FNDA:0,_ZNSt6vectorIS_IS_IiSaIiEESaIS1_EESaIS3_EED2Ev
FNDA:0,_ZNSt6vectorIS_IiSaIiEESaIS1_EED2Ev
FNDA:0,_ZNSt6vectorIiSaIiEED2Ev
FNDA:240,_ZNSt6vectorIiSaIiEEaSEOS1_
FNDA:2949,_ZNSt6vectorIS_IiSaIiEESaIS1_EEaSEOS3_
FNDA:0,_ZNSt6vectorIiSaIiEE5beginEv
FNDA:0,_ZNSt6vectorIS_IS_IiSaIiEESaIS1_EESaIS3_EE5beginEv
FNDA:0,_ZNSt6vectorIS_IiSaIiEESaIS1_EE5beginEv
FNDA:0,_ZNKSt6vectorIiSaIiEE5beginEv
FNDA:54,_ZNKSt6vectorIS_IS_IiSaIiEESaIS1_EESaIS3_EE5beginEv
FNDA:0,_ZNKSt6vectorIS_IiSaIiEESaIS1_EE5beginEv
FNDA:0,_ZNSt6vectorIiSaIiEE3endEv
FNDA:0,_ZNSt6vectorIS_IS_IiSaIiEESaIS1_EESaIS3_EE3endEv
FNDA:0,_ZNSt6vectorIS_IiSaIiEESaIS1_EE3endEv
FNDA:0,_ZNKSt6vectorIiSaIiEE3endEv
FNDA:54,_ZNKSt6vectorIS_IS_IiSaIiEESaIS1_EESaIS3_EE3endEv
FNDA:0,_ZNKSt6vectorIS_IiSaIiEESaIS1_EE3endEv
FNDA:2637,_ZNKSt6vectorIS_IiSaIiEESaIS1_EE6cbeginEv
FNDA:0,_ZNKSt6vectorIS_IS_IiSaIiEESaIS1_EESaIS3_EE4sizeEv
FNDA:0,_ZNKSt6vectorIiSaIiEE4sizeEv
FNDA:0,_ZNKSt6vectorIS_IiSaIiEESaIS1_EE4sizeEv
FNDA:0,_ZNKSt6vectorIS_IS_IiSaIiEESaIS1_EESaIS3_EE8max_sizeEv
FNDA:0,_ZNKSt6vectorIS_IiSaIiEESaIS1_EE8max_sizeEv
FNDA:0,_ZNKSt6vectorIiSaIiEE8capacityEv
FNDA:104125,_ZNSt6vectorIiSaIiEEixEm
FNDA:97728,_ZNSt6vectorIS_IiSaIiEESaIS1_EEixEm
FNDA:0,_ZNKSt6vectorIiSaIiEEixEm
FNDA:0,_ZNKSt6vectorIS_IiSaIiEESaIS1_EEixEm
FNDA:0,_ZNSt6vectorIS_IS_IiSaIiEESaIS1_EESaIS3_EE9push_backERKS3_
FNDA:0,_ZNSt6vectorIS_IiSaIiEESaIS1_EE9push_backERKS1_
FNDA:4842,_ZNSt6vectorIS_IiSaIiEESaIS1_EE9push_backEOS1_
FNDA:2637,_ZNSt6vectorIS_IiSaIiEESaIS1_EE6insertIN9__gnu_cxx17__normal_iteratorIPS1_S3_EEvEES8_NS6_IPKS1_S3_EET_SC_
FNDA:0,_ZNSt6vectorIiSaIiEE5clearEv
FNDA:0,_ZNSt6vectorIiSaIiEE20_M_allocate_and_copyIN9__gnu_cxx17__normal_iteratorIPKiS1_EEEEPimT_S9_
FNDA:0,_ZNSt6vectorIiSaIiEE19_M_range_initializeIPKiEEvT_S5_St20forward_iterator_tag
FNDA:0,_ZNSt6vectorIS_IiSaIiEESaIS1_EE19_M_range_initializeIPKS1_EEvT_S7_St20forward_iterator_tag
FNDA:2637,_ZNSt6vectorIS_IiSaIiEESaIS1_EE18_M_insert_dispatchIN9__gnu_cxx17__normal_iteratorIPS1_S3_EEEEvS8_T_S9_St12__false_type
FNDA:0,_ZNKSt6vectorIS_IS_IiSaIiEESaIS1_EESaIS3_EE12_M_check_lenEmPKc
FNDA:0,_ZNKSt6vectorIS_IiSaIiEESaIS1_EE12_M_check_lenEmPKc
FNDA:0,_ZNSt6vectorIiSaIiEE15_M_erase_at_endEPi
FNDA:240,_ZNSt6vectorIiSaIiEE14_M_move_assignEOS1_St17integral_constantIbLb1EE
FNDA:2949,_ZNSt6vectorIS_IiSaIiEESaIS1_EE14_M_move_assignEOS3_St17integral_constantIbLb1EE
FNDA:0,_ZSteqIiSaIiEEbRKSt6vectorIT_T0_ES6_
FNF:91
FNH:16
DA:81,0
DA:88,0
DA:89,0
DA:90,0
DA:92,0
DA:93,0
DA:94,0
DA:97,0
DA:98,0
DA:99,0
DA:100,0
DA:103,0
DA:105,0
DA:106,0
DA:107,0
DA:108,0
DA:115,0
DA:116,0
DA:119,0
DA:120,0
DA:123,3189
DA:124,3189
DA:126,0
DA:127,0
DA:129,0
DA:130,0
DA:136,0
DA:137,0
DA:138,0
DA:144,0
DA:145,0
DA:146,0
DA:161,0
DA:162,0
DA:163,0
DA:169,0
DA:172,0
DA:176,0
DA:179,0
DA:180,0
DA:181,0
DA:185,0
DA:187,0
DA:188,0
DA:189,0
DA:190,0
DA:259,0
DA:263,0
DA:270,3189
DA:271,3189
DA:326,0
DA:328,0
DA:330,0
DA:331,0
DA:333,0
DA:334,0
DA:344,0
DA:345,0
DA:383,0
DA:385,0
DA:387,0
DA:389,0
DA:433,0
DA:434,0
DA:435,0
DA:461,3189
DA:463,3189
DA:466,3189
DA:467,3189
DA:563,0
DA:564,0
DA:572,54
DA:573,54
DA:581,0
DA:582,0
DA:590,54
DA:591,54
DA:636,2637
DA:637,2637
DA:670,0
DA:671,0
DA:675,0
DA:676,0
DA:750,0
DA:751,0
DA:752,0
DA:795,201853
DA:798,201853
DA:813,0
DA:816,0
DA:939,0
DA:941,0
DA:943,0
DA:945,0
DA:948,0
DA:949,0
DA:953,4842
DA:954,4842
DA:1128,2637
DA:1131,2637
DA:1132,2637
DA:1134,2637
DA:1247,0
DA:1248,0
DA:1257,0
DA:1260,0
DA:1263,0
DA:1264,0
DA:1265,0
DA:1267,0
DA:1269,0
DA:1270,0
DA:1324,0
DA:1327,0
DA:1328,0
DA:1329,0
DA:1330,0
DA:1331,0
DA:1333,0
DA:1334,0
DA:1408,2637
DA:1411,2637
DA:1412,5274
DA:1413,2637
DA:1502,0
DA:1504,0
DA:1505,0
DA:1507,0
DA:1508,0
DA:1516,0
DA:1518,0
DA:1519,0
DA:1520,0
DA:1534,3189
DA:1536,6378
DA:1537,3189
DA:1538,3189
DA:1539,3189
DA:1540,3189
DA:1601,0
DA:1602,0
DA:1603,0
LF:142
LH:32
end_of_record
SF:/usr/include/c++/7/bits/vector.tcc
FN:95,_ZNSt6vectorIS_IiSaIiEESaIS1_EE12emplace_backIJS1_EEEvDpOT_
FN:179,_ZNSt6vectorIiSaIiEEaSERKS1_
FN:394,_ZNSt6vectorIS_IiSaIiEESaIS1_EE17_M_realloc_insertIJS1_EEEvN9__gnu_cxx17__normal_iteratorIPS1_S3_EEDpOT_
FN:394,_ZNSt6vectorIS_IiSaIiEESaIS1_EE17_M_realloc_insertIJRKS1_EEEvN9__gnu_cxx17__normal_iteratorIPS1_S3_EEDpOT_
FN:394,_ZNSt6vectorIS_IS_IiSaIiEESaIS1_EESaIS3_EE17_M_realloc_insertIJRKS3_EEEvN9__gnu_cxx17__normal_iteratorIPS3_S5_EEDpOT_
FN:630,_ZNSt6vectorIS_IiSaIiEESaIS1_EE15_M_range_insertIN9__gnu_cxx17__normal_iteratorIPS1_S3_EEEEvS8_T_S9_St20forward_iterator_tag
FNDA:4842,_ZNSt6vectorIS_IiSaIiEESaIS1_EE12emplace_backIJS1_EEEvDpOT_
FNDA:0,_ZNSt6vectorIiSaIiEEaSERKS1_
FNDA:4587,_ZNSt6vectorIS_IiSaIiEESaIS1_EE17_M_realloc_insertIJS1_EEEvN9__gnu_cxx17__normal_iteratorIPS1_S3_EEDpOT_
FNDA:0,_ZNSt6vectorIS_IS_IiSaIiEESaIS1_EESaIS3_EE17_M_realloc_insertIJRKS3_EEEvN9__gnu_cxx17__normal_iteratorIPS3_S5_EEDpOT_
FNDA:0,_ZNSt6vectorIS_IiSaIiEESaIS1_EE17_M_realloc_insertIJRKS1_EEEvN9__gnu_cxx17__normal_iteratorIPS1_S3_EEDpOT_
FNDA:2637,_ZNSt6vectorIS_IiSaIiEESaIS1_EE15_M_range_insertIN9__gnu_cxx17__normal_iteratorIPS1_S3_EEEEvS8_T_S9_St20forward_iterator_tag
FNF:6
FNH:3
DA:95,4842
DA:98,4842
DA:100,255
DA:102,255
DA:105,4587
DA:109,4842
DA:179,0
DA:182,0
DA:185,0
DA:187,0
DA:188,0
DA:191,0
DA:192,0
DA:193,0
DA:194,0
DA:195,0
DA:196,0
DA:197,0
DA:199,0
DA:203,0
DA:204,0
DA:206,0
DA:208,0
DA:209,0
DA:210,0
DA:211,0
DA:212,0
DA:213,0
DA:214,0
DA:216,0
DA:218,0
DA:219,0
DA:223,0
DA:225,0
DA:226,0
DA:228,0
DA:230,0
DA:232,0
DA:394,4587
DA:403,4587
DA:405,4587
DA:406,4587
DA:407,4587
DA:415,9174
DA:416,4587
DA:422,4587
DA:424,4587
DA:426,4587
DA:427,4587
DA:429,4587
DA:431,4587
DA:433,4587
DA:434,4587
DA:436,0
DA:438,0
DA:439,0
DA:440,0
DA:442,0
DA:443,0
DA:444,0
DA:446,4587
DA:447,4587
DA:448,9174
DA:449,4587
DA:450,4587
DA:451,4587
DA:452,4587
DA:453,4587
DA:454,4587
DA:630,2637
DA:634,2637
DA:636,2460
DA:637,4920
DA:638,2460
DA:640,612
DA:641,612
DA:642,612
DA:644,0
DA:647,0
DA:648,0
DA:649,0
DA:651,0
DA:655,612
DA:656,612
DA:657,612
DA:659,612
DA:660,612
DA:661,612
DA:664,612
DA:665,612
DA:666,612
DA:671,1848
DA:673,1848
DA:674,1848
DA:677,1848
DA:679,1848
DA:680,1848
DA:681,1848
DA:684,1848
DA:685,1848
DA:687,1848
DA:688,1848
DA:690,0
DA:692,0
DA:693,0
DA:694,0
DA:695,0
DA:697,1848
DA:698,1848
DA:699,3696
DA:700,1848
DA:701,1848
DA:702,1848
DA:703,1848
DA:704,1848
DA:707,2637
LF:116
LH:67
end_of_record
SF:/usr/include/c++/7/ext/alloc_traits.h
FN:94,_ZN9__gnu_cxx14__alloc_traitsISaISt6vectorIiSaIiEEEE17_S_select_on_copyERKS4_
FN:94,_ZN9__gnu_cxx14__alloc_traitsISaIiEE17_S_select_on_copyERKS1_
FN:100,_ZN9__gnu_cxx14__alloc_traitsISaIiEE27_S_propagate_on_copy_assignEv
FN:109,_ZN9__gnu_cxx14__alloc_traitsISaIiEE15_S_always_equalEv
FNDA:0,_ZN9__gnu_cxx14__alloc_traitsISaISt6vectorIiSaIiEEEE17_S_select_on_copyERKS4_
FNDA:0,_ZN9__gnu_cxx14__alloc_traitsISaIiEE17_S_select_on_copyERKS1_
FNDA:0,_ZN9__gnu_cxx14__alloc_traitsISaIiEE27_S_propagate_on_copy_assignEv
FNDA:0,_ZN9__gnu_cxx14__alloc_traitsISaIiEE15_S_always_equalEv
FNF:4
FNH:0
DA:94,0
DA:95,0
DA:100,0
DA:101,0
DA:109,0
DA:110,0
LF:6
LH:0
end_of_record
SF:/usr/include/c++/7/ext/new_allocator.h
FN:79,_ZN9__gnu_cxx13new_allocatorIiEC2Ev
FN:79,_ZN9__gnu_cxx13new_allocatorISt6vectorIiSaIiEEEC2Ev
FN:79,_ZN9__gnu_cxx13new_allocatorISt6vectorIS1_IiSaIiEESaIS3_EEEC2Ev
FN:81,_ZN9__gnu_cxx13new_allocatorIiEC2ERKS1_
FN:81,_ZN9__gnu_cxx13new_allocatorISt6vectorIiSaIiEEEC2ERKS4_
FN:86,_ZN9__gnu_cxx13new_allocatorISt6vectorIiSaIiEEED2Ev
FN:86,_ZN9__gnu_cxx13new_allocatorIiED2Ev
FN:86,_ZN9__gnu_cxx13new_allocatorISt6vectorIS1_IiSaIiEESaIS3_EEED2Ev
FN:99,_ZN9__gnu_cxx13new_allocatorIiE8allocateEmPKv
FN:99,_ZN9__gnu_cxx13new_allocatorISt6vectorIiSaIiEEE8allocateEmPKv
FN:99,_ZN9__gnu_cxx13new_allocatorISt6vectorIS1_IiSaIiEESaIS3_EEE8allocateEmPKv
FN:116,_ZN9__gnu_cxx13new_allocatorIiE10deallocateEPim
FN:116,_ZN9__gnu_cxx13new_allocatorISt6vectorIiSaIiEEE10deallocateEPS3_m
FN:116,_ZN9__gnu_cxx13new_allocatorISt6vectorIS1_IiSaIiEESaIS3_EEE10deallocateEPS5_m
FN:129,_ZNK9__gnu_cxx13new_allocatorIiE8max_sizeEv
FN:129,_ZNK9__gnu_cxx13new_allocatorISt6vectorIS1_IiSaIiEESaIS3_EEE8max_sizeEv
FN:129,_ZNK9__gnu_cxx13new_allocatorISt6vectorIiSaIiEEE8max_sizeEv
FN:135,_ZN9__gnu_cxx13new_allocatorISt6vectorIS1_IiSaIiEESaIS3_EEE9constructIS5_JRKS5_EEEvPT_DpOT0_
FN:135,_ZN9__gnu_cxx13new_allocatorISt6vectorIiSaIiEEE9constructIS3_JRKS3_EEEvPT_DpOT0_
FN:135,_ZN9__gnu_cxx13new_allocatorISt6vectorIiSaIiEEE9constructIS3_JS3_EEEvPT_DpOT0_
FN:140,_ZN9__gnu_cxx13new_allocatorISt6vectorIiSaIiEEE7destroyIS3_EEvPT_
FN:140,_ZN9__gnu_cxx13new_allocatorISt6vectorIS1_IiSaIiEESaIS3_EEE7destroyIS5_EEvPT_
FNDA:0,_ZN9__gnu_cxx13new_allocatorISt6vectorIS1_IiSaIiEESaIS3_EEEC2Ev
FNDA:0,_ZN9__gnu_cxx13new_allocatorIiEC2Ev
FNDA:0,_ZN9__gnu_cxx13new_allocatorISt6vectorIiSaIiEEEC2Ev
FNDA:0,_ZN9__gnu_cxx13new_allocatorISt6vectorIiSaIiEEEC2ERKS4_
FNDA:0,_ZN9__gnu_cxx13new_allocatorIiEC2ERKS1_
FNDA:0,_ZN9__gnu_cxx13new_allocatorISt6vectorIS1_IiSaIiEESaIS3_EEED2Ev
FNDA:0,_ZN9__gnu_cxx13new_allocatorIiED2Ev
FNDA:0,_ZN9__gnu_cxx13new_allocatorISt6vectorIiSaIiEEED2Ev
FNDA:0,_ZN9__gnu_cxx13new_allocatorISt6vectorIS1_IiSaIiEESaIS3_EEE8allocateEmPKv
FNDA:0,_ZN9__gnu_cxx13new_allocatorIiE8allocateEmPKv
FNDA:0,_ZN9__gnu_cxx13new_allocatorISt6vectorIiSaIiEEE8allocateEmPKv
FNDA:0,_ZN9__gnu_cxx13new_allocatorISt6vectorIS1_IiSaIiEESaIS3_EEE10deallocateEPS5_m
FNDA:0,_ZN9__gnu_cxx13new_allocatorISt6vectorIiSaIiEEE10deallocateEPS3_m
FNDA:0,_ZN9__gnu_cxx13new_allocatorIiE10deallocateEPim
FNDA:0,_ZNK9__gnu_cxx13new_allocatorISt6vectorIS1_IiSaIiEESaIS3_EEE8max_sizeEv
FNDA:0,_ZNK9__gnu_cxx13new_allocatorIiE8max_sizeEv
FNDA:0,_ZNK9__gnu_cxx13new_allocatorISt6vectorIiSaIiEEE8max_sizeEv
FNDA:4842,_ZN9__gnu_cxx13new_allocatorISt6vectorIiSaIiEEE9constructIS3_JS3_EEEvPT_DpOT0_
FNDA:0,_ZN9__gnu_cxx13new_allocatorISt6vectorIS1_IiSaIiEESaIS3_EEE9constructIS5_JRKS5_EEEvPT_DpOT0_
FNDA:0,_ZN9__gnu_cxx13new_allocatorISt6vectorIiSaIiEEE9constructIS3_JRKS3_EEEvPT_DpOT0_
FNDA:0,_ZN9__gnu_cxx13new_allocatorISt6vectorIS1_IiSaIiEESaIS3_EEE7destroyIS5_EEvPT_
FNDA:0,_ZN9__gnu_cxx13new_allocatorISt6vectorIiSaIiEEE7destroyIS3_EEvPT_
FNF:22
FNH:1
DA:79,0
DA:81,0
DA:86,0
DA:99,0
DA:101,0
DA:102,0
DA:111,0
DA:116,0
DA:125,0
DA:126,0
DA:129,0
DA:130,0
DA:135,4842
DA:136,4842
DA:140,0
LF:15
LH:2
end_of_record
SF:/usr/include/c++/7/initializer_list
FN:71,_ZNKSt16initializer_listISt6vectorIiSaIiEEE4sizeEv
FN:71,_ZNKSt16initializer_listIiE4sizeEv
FN:75,_ZNKSt16initializer_listISt6vectorIiSaIiEEE5beginEv
FN:75,_ZNKSt16initializer_listIiE5beginEv
FN:79,_ZNKSt16initializer_listIiE3endEv
FN:79,_ZNKSt16initializer_listISt6vectorIiSaIiEEE3endEv
FNDA:0,_ZNKSt16initializer_listIiE4sizeEv
FNDA:0,_ZNKSt16initializer_listISt6vectorIiSaIiEEE4sizeEv
FNDA:0,_ZNKSt16initializer_listIiE5beginEv
FNDA:0,_ZNKSt16initializer_listISt6vectorIiSaIiEEE5beginEv
FNDA:0,_ZNKSt16initializer_listIiE3endEv
FNDA:0,_ZNKSt16initializer_listISt6vectorIiSaIiEEE3endEv
FNF:6
FNH:0
DA:71,0
DA:75,0
DA:79,0
LF:3
LH:0
end_of_record
SF:/usr/include/c++/7/new
FN:168,_ZnwmPv
FN:174,_ZdlPvS_
FNDA:0,_ZnwmPv
FNDA:0,_ZdlPvS_
FNF:2
FNH:0
DA:168,0
DA:169,0
DA:174,0
LF:3
LH:0
end_of_record
TN:
SF:/home/msaied/Documents/TPI-morfologia-matematica/lib/googletest-master/googletest/include/gtest/gtest.h
FN:2326,_Z13RUN_ALL_TESTSv
FNDA:6,_Z13RUN_ALL_TESTSv
FNF:1
FNH:1
DA:2326,6
DA:2327,6
LF:2
LH:2
end_of_record
SF:/home/msaied/Documents/TPI-morfologia-matematica/main.cpp
FN:4,main
FN:8,_Z41__static_initialization_and_destruction_0ii
FN:8,_GLOBAL__sub_I_main
FNDA:6,main
FNDA:6,_GLOBAL__sub_I_main
FNDA:6,_Z41__static_initialization_and_destruction_0ii
FNF:3
FNH:3
DA:4,6
DA:5,6
DA:6,6
DA:7,6
DA:8,18
LF:5
LH:5
end_of_record
SF:/usr/include/c++/7/iostream
DA:74,6
LF:1
LH:1
end_of_record
